((lp1
S'a'
aS'to'
p2
aS'like'
p3
aS'you'
p4
aS'in'
p5
aS'it'
p6
aS'i'
aS'her'
p7
aS'no'
p8
aS'of'
p9
aS'he'
p10
aS'your'
p11
aS"it's"
p12
aS'on'
p13
aS'for'
p14
aS'is'
p15
aS'my'
p16
aS'they'
p17
aS'with'
p18
aS'what'
p19
aS'this'
p20
aS'the'
p21
aS'get'
p22
aS'or'
p23
aS'all'
p24
aS'me'
p25
aS'and'
p26
aS'she'
p27
aS'know'
p28
aS'be'
p29
aS'ya'
p30
aS'but'
p31
aS"don't"
p32
aS'not'
p33
aS'how'
p34
aS'do'
p35
aS'new'
p36
aS'tell'
p37
aS'out'
p38
aS'got'
p39
aS'their'
p40
aS'have'
p41
aS'him'
p42
aS'rap'
p43
aS'shit'
p44
aS'doom'
p45
aS'telling'
p46
aS'told'
p47
aS'so'
p48
aS"that's"
p49
aS'one'
p50
aS"'em"
p51
aS'say'
p52
aS'make'
p53
aS'off'
p54
aS'as'
p55
aS'at'
p56
aS'let'
p57
aS'yeah'
p58
aS'keep'
p59
aS'feel'
p60
aS'that'
p61
aS'than'
p62
aS'who'
p63
aS'his'
p64
aS'said'
p65
aS'enough'
p66
aS'business'
p67
aS'up'
p68
aS'when'
p69
aS'hold'
p70
aS'villain'
p71
aS'if'
p72
aS'man'
p73
aS"he's"
p74
aS'snitches'
p75
aS'need'
p76
aS'we'
p77
aS'right'
p78
aS'some'
p79
aS'super'
p80
aS'was'
p81
aS'since'
p82
aS'go'
p83
aS'great'
p84
aS'from'
p85
aS"ain't"
p86
aS'mf'
p87
aS'heart'
p88
aS'hot'
p89
aS'still'
p90
aS'now'
p91
aS'too'
p92
aS'double'
p93
aS'flow'
p94
aS'shot'
p95
aS'applause'
p96
aS'through'
p97
aS"y'all"
p98
aS'oh'
p99
aS'pop'
p100
aS'flows'
p101
aS'back'
p102
aS'there'
p103
aS'start'
p104
aS'head'
p105
aS'heat'
p106
aS'time'
p107
aS'never'
p108
aS'jar'
p109
aS'fantastik'
p110
aS'black'
p111
aS'more'
p112
aS"i'm"
p113
aS'must'
p114
aS'can'
p115
aS'mr'
p116
aS'unmarked'
p117
aS'bubble'
p118
aS'low'
p119
aS'style'
p120
aS'then'
p121
aS'yo'
p122
aS'used'
p123
aS'after'
p124
aS'could'
p125
aS'listen'
p126
aS'bet'
p127
aS'take'
p128
aS'even'
p129
aS'mouth'
p130
aS'why'
p131
aS'sometimes'
p132
aS'face'
p133
aS'only'
p134
aS'engraved'
p135
aS'please'
p136
aS"there's"
p137
aS'eye'
p138
aS'come'
p139
aS'whole'
p140
aS'been'
p141
aS'life'
p142
aS'sound'
p143
aS'look'
p144
aS'while'
p145
aS'lead'
p146
aS'sleeping'
p147
aS'nerd'
p148
aS'food'
p149
aS'running'
p150
aS'well'
p151
aS'just'
p152
aS'real'
p153
aS'around'
p154
aS"who's"
p155
aS'either'
p156
aS'chick'
p157
aS'old'
p158
aS'sure'
p159
aS'getting'
p160
aS'own'
p161
aS'cats'
p162
aS'lot'
p163
aS'made'
p164
aS'an'
p165
aS'saying'
p166
aS'tv'
p167
aS'pride'
p168
aS'brown'
p169
aS'rhyme'
p170
aS'fat'
p171
aS'list'
p172
aS'gum'
p173
aS'quick'
p174
aS"i'll"
p175
aS'street'
p176
aS'blue'
p177
aS'fine'
p178
aS'above'
p179
aS'ever'
p180
aS'full'
p181
aS'here'
p182
aS'tracks'
p183
aS'boy'
p184
aS'pack'
p185
aS'live'
p186
aS'brought'
p187
aS'put'
p188
aS'fake'
p189
aS'crime'
p190
aS're'
p191
aS'type'
p192
aS'fly'
p193
aS'hole'
p194
aS'glad'
p195
aS'high'
p196
aS'heard'
p197
aS'seeds'
p198
aS'tried'
p199
aS'spot'
p200
aS'autograph'
p201
aS'every'
p202
aS'talk'
p203
aS'shake'
p204
aS'hell'
p205
aS'cold'
p206
aS'down'
p207
aS'name'
p208
aS'bills'
p209
aS'krills'
p210
aS'pills'
p211
aS'leave'
p212
aS'goo'
p213
aS'god'
p214
aS'ask'
p215
aS'where'
p216
aS'thing'
p217
aS'think'
p218
aS'done'
p219
aS'least'
p220
aS'doomsday'
p221
aS'kid'
p222
aS'way'
p223
aS'wide'
p224
aS'ben'
p225
aS'matter'
p226
aS'sell'
p227
aS'snow'
p228
aS'wonder'
p229
aS"an'"
p230
aS'track'
p231
aS'pair'
p232
aS'left'
p233
aS'came'
p234
aS'slow'
p235
aS'handle'
p236
aS'stop'
p237
aS'coast'
p238
aS'bad'
p239
aS'stuff'
p240
aS'wrote'
p241
aS'led'
p242
aS'best'
p243
aS'case'
p244
aS'probably'
p245
aS'figaro'
p246
aS'tour'
p247
aS"can't"
p248
aS'patty'
p249
aS'sweet'
p250
aS'better'
p251
aS'beer'
p252
aS'waste'
p253
aS'hardly'
p254
aS'smile'
p255
aS'ugly'
p256
aS'kick'
p257
aS'many'
p258
aS'voice'
p259
aS'snappin'
p260
aS'good'
p261
aS'same'
p262
aS'ball'
p263
aS'hand'
p264
aS'two'
p265
aS'spitting'
p266
aS'without'
p267
aS'dumile'
p268
aS'self'
p269
aS'true'
p270
aS'had'
p271
aS'has'
p272
aS'government'
p273
aS'read'
p274
aS'meat'
p275
aS'soft'
p276
aS"ol'"
p277
aS'act'
p278
aS'ahh'
p279
aS'hey'
p280
aS'treat'
p281
aS'ho'
p282
aS'squeeze'
p283
aS'whether'
p284
aS'wish'
p285
aS'us'
p286
aS'cake'
p287
aS'play'
p288
aS'metal'
p289
aS'check'
p290
aS'again'
p291
aS'tit'
p292
aS'fools'
p293
aS'really'
p294
aS'nice'
p295
aS"e'rything"
p296
aS'stay'
p297
aS"we're"
p298
aS'once'
p299
aS'broke'
p300
aS'chain'
p301
aS'wreath'
p302
aS'dollar'
p303
aS'yellow'
p304
aS'everybody'
p305
aS'leads'
p306
aS'known'
p307
aS'code'
p308
aS'aw'
p309
aS'overdose'
p310
aS'intricate'
p311
aS'follow'
p312
aS'extra'
p313
aS'pardon'
p314
aS'animal'
p315
aS'watch'
p316
aS'fried'
p317
aS'disgusting'
p318
aS'gary'
p319
aS'under'
p320
aS'dukes'
p321
aS'worth'
p322
aS'string'
p323
aS'blimey'
p324
aS'apeshit'
p325
aS'horror'
p326
aS'caught'
p327
aS'sloppy'
p328
aS"mil'"
p329
aS'osection'
p330
aS'jack'
p331
aS'fam'
p332
aS'bootlegging'
p333
aS'bubbles'
p334
aS'little'
p335
aS'screaming'
p336
aS'cool'
p337
aS'timely'
p338
aS'skills'
p339
aS'foofur'
p340
aS'whooping'
p341
aS"they've"
p342
aS'try'
p343
aS'these'
p344
aS'glued'
p345
aS'clothes'
p346
aS'open'
p347
aS'cookies'
p348
aS'rats'
p349
aS'ten'
p350
aS'threeplat'
p351
aS'soul'
p352
aS'rhymes'
p353
aS'subtle'
p354
aS'run'
p355
aS'odd'
p356
aS'skeet'
p357
aS'trick'
p358
aS"which'll"
p359
aS'wreck'
p360
aS'bc'
p361
aS'eating'
p362
aS'appeal'
p363
aS"villain'll"
p364
aS'med'
p365
aS'orangutans'
p366
aS'chat'
p367
aS'commercial'
p368
aS'tykes'
p369
aS'feeding'
p370
aS'mer'
p371
aS'sexy'
p372
aS'strong'
p373
aS'win'
p374
aS'kidnapped'
p375
aS'change'
p376
aS'digits'
p377
aS'daughter'
p378
aS'colored'
p379
aS'boast'
p380
aS'jazzy'
p381
aS'laughter'
p382
aS'niner'
p383
aS'east'
p384
aS'dirt'
p385
aS'leaving'
p386
aS"i'd"
p387
aS'boo'
p388
aS'usually'
p389
aS'weird'
p390
aS'love'
p391
aS'hunch'
p392
aS'adidas'
p393
aS'claim'
p394
aS'forbid'
p395
aS'rum'
p396
aS'strap'
p397
aS'analyzing'
p398
aS'during'
p399
aS'flavors'
p400
aS'plot'
p401
aS'use'
p402
aS'faint'
p403
aS'story'
p404
aS"year's"
p405
aS'parties'
p406
aS'cali'
p407
aS'asses'
p408
aS'doubt'
p409
aS'gorgeous'
p410
aS'cuter'
p411
aS'minor'
p412
aS'sort'
p413
aS'thrill'
p414
aS'yuck'
p415
aS'flap'
p416
aS'getrich'
p417
aS'ooh'
p418
aS'tubbies'
p419
aS'grief'
p420
aS'tandem'
p421
aS'stick'
p422
aS'loose'
p423
aS'lord'
p424
aS'baby'
p425
aS'riders'
p426
aS'tad'
p427
aS'ma'
p428
aS'worf'
p429
aS'niggas'
p430
aS'work'
p431
aS'warn'
p432
aS'ms'
p433
aS'cab'
p434
aS'broad'
p435
aS'crazy'
p436
aS'pony'
p437
aS'household'
p438
aS'rapp'
p439
aS'doubting'
p440
aS'stroke'
p441
aS'posing'
p442
aS'bend'
p443
aS'want'
p444
aS'chakra'
p445
aS'hit'
p446
aS'scar'
p447
aS'stole'
p448
aS'looser'
p449
aS'freaks'
p450
aS'weirdo'
p451
aS'clint'
p452
aS'rather'
p453
aS'six'
p454
aS'bourgie'
p455
aS'coppers'
p456
aS'responsibility'
p457
aS'speeding'
p458
aS'answer'
p459
aS'profile'
p460
aS'pap'
p461
aS'emcees'
p462
aS'mess'
p463
aS'db'
p464
aS'ox'
p465
aS'tied'
p466
aS'fart'
p467
aS'goony'
p468
aS'blood'
p469
aS'dough'
p470
aS'guys'
p471
aS'grow'
p472
aS'realized'
p473
aS'neck'
p474
aS'third'
p475
aS'concern'
p476
aS'horrifying'
p477
aS'doctor'
p478
aS'scoop'
p479
aS'switch'
p480
aS'suggest'
p481
aS'alloy'
p482
aS'dream'
p483
aS'drink'
p484
aS'earthworm'
p485
aS'shoes'
p486
aS'forfeit'
p487
aS'soon'
p488
aS"o's"
p489
aS'shakedown'
p490
aS"won't"
p491
aS'sho'
p492
aS'duociano'
p493
aS'bunch'
p494
aS'raw'
p495
aS'arteries'
p496
aS'group'
p497
aS'thank'
p498
aS'll'
p499
aS'destro'
p500
aS'troubles'
p501
aS'writing'
p502
aS"he'd"
p503
aS'foe'
p504
aS'bout'
p505
aS'might'
p506
aS"chippin'"
p507
aS'them'
p508
aS'dag'
p509
aS'somebody'
p510
aS'toppa'
p511
aS'males'
p512
aS'cowboy'
p513
aS"ho's"
p514
aS'cutting'
p515
aS'tails'
p516
aS'starfleet'
p517
aS'half'
p518
aS'discuss'
p519
aS'mystery'
p520
aS'masters'
p521
aS'mere'
p522
aS'always'
p523
aS'drop'
p524
aS'momma'
p525
aS'lisp'
p526
aS'stopped'
p527
aS'turns'
p528
aS'found'
p529
aS'went'
p530
aS'mean'
p531
aS'everyone'
p532
aS'doing'
p533
aS'colder'
p534
aS'hard'
p535
aS'brother'
p536
aS'relentlessly'
p537
aS'fist'
p538
aS'year'
p539
aS'our'
p540
aS'whip'
p541
aS'alcohol'
p542
aS'borderline'
p543
aS'foolproof'
p544
aS'trooper'
p545
aS'buttonup'
p546
aS'rounds'
p547
aS'comedic'
p548
aS"goin'"
p549
aS'staring'
p550
aS"shouldn't"
p551
aS'print'
p552
aS'squares'
p553
aS'fled'
p554
aS'shows'
p555
aS'ass'
p556
aS'shut'
p557
aS"you're"
p558
aS'doublebreasted'
p559
aS'horse'
p560
aS'free'
p561
aS'mmm'
p562
aS'dashing'
p563
aS'york'
p564
aS'doubles'
p565
aS'cough'
p566
aS'care'
p567
aS'wookie'
p568
aS'scary'
p569
aS'yard'
p570
aS'elastic'
p571
aS'g'
aS'terrible'
p572
aS'hopeless'
p573
aS'turd'
p574
aS'mello'
p575
aS'anita'
p576
aS'lay'
p577
aS'insane'
p578
aS'dime'
p579
aS"baker's"
p580
aS'knocking'
p581
aS'reaches'
p582
aS'yello'
p583
aS'fast'
p584
aS'delicious'
p585
aS'copped'
p586
aS'sounds'
p587
aS'plastic'
p588
aS'vandal'
p589
aS'tomorrow'
p590
aS"doesn't"
p591
aS'guess'
p592
aS'long'
p593
aS'jet'
p594
aS'bite'
p595
aS'collar'
p596
aS'attack'
p597
aS"dt's"
p598
aS"tippin'"
p599
aS'west'
p600
aS'speaking'
p601
aS'eyes'
p602
aS'masseur'
p603
aS'revue'
p604
aS'brains'
p605
aS'shorty'
p606
aS'negro'
p607
aS'somewhat'
p608
aS'quad'
p609
aS'copy'
p610
aS'steel'
p611
aS'kindly'
p612
aS'preaches'
p613
aS'grandmama'
p614
aS'derriere'
p615
aS'dogs'
p616
aS'youth'
p617
aS"blingin'"
p618
aS"skeezer's"
p619
aS'silly'
p620
aS'supposed'
p621
aS'iron'
p622
aS'were'
p623
aS'beard'
p624
aS'powers'
p625
aS'troublesome'
p626
aS'fashion'
p627
aS'villains'
p628
aS'turned'
p629
aS'few'
p630
aS'villainy'
p631
aS'talking'
p632
aS'halal'
p633
aS'close'
p634
aS'worst'
p635
aS'gear'
p636
aS'sings'
p637
aS'sharecroppers'
p638
aS'linen'
p639
aS'mic'
p640
aS'snot'
p641
aS'zoo'
p642
aS'note'
p643
aS'bus'
p644
aS'hennessy'
p645
aS'destroy'
p646
aS'rides'
p647
aS"girl's"
p648
aS'pain'
p649
aS'though'
p650
aS'rappers'
p651
aS'breadwinner'
p652
aS'chart'
p653
aS'paid'
p654
aS'most'
p655
aS'amongst'
p656
aS'cracking'
p657
aS'sally'
p658
aS'ishmael'
p659
aS'glow'
p660
aS'stereo'
p661
aS'flops'
p662
aS'give'
p663
aS'mineral'
p664
aS'foot'
p665
aS'average'
p666
aS'disease'
p667
aS'anthem'
p668
aS'stuns'
p669
aS'guard'
p670
aS'perpetrated'
p671
aS'kite'
p672
aS'lyrics'
p673
aS'show'
p674
aS'random'
p675
aS'rhymers'
p676
aS'dupe'
p677
aS'bring'
p678
aS'attempts'
p679
aS'session'
p680
aS'seaweed'
p681
aS'headshot'
p682
aS'doodoodoodoodoo'
p683
aS'chicken'
p684
aS'bail'
p685
aS'find'
p686
aS'thigh'
p687
aS'toast'
p688
aS'wear'
p689
aS'femstat'
p690
aS'scooter'
p691
aS'madman'
p692
aS'pump'
p693
aS'bust'
p694
aS'mens'
p695
aS'tape'
p696
aS'lemme'
p697
aS'travesty'
p698
aS'gangsta'
p699
aS'handsome'
p700
aS'over'
p701
aS'hope'
p702
aS'meant'
p703
aS'mister'
p704
aS'goes'
p705
aS'exaggeration'
p706
aS'beat'
p707
aS'hostility'
p708
aS'dc'
p709
aS'clang'
p710
aS'geek'
p711
aS'molasses'
p712
aS'watermelon'
p713
aS'meter'
p714
aS'words'
p715
aS'onetwo'
p716
aS'hooper'
p717
aS'nasty'
p718
aS'ghetto'
p719
aS'bird'
p720
aS'hollow'
p721
aS'bag'
p722
aS'adjourned'
p723
aS'favors'
p724
aS'ears'
p725
aS'perpetrator'
p726
aS'throwing'
p727
aS'naked'
p728
aS'nut'
p729
aS'sugarcoated'
p730
aS'flip'
p731
aS'see'
p732
aS'firefight'
p733
aS'meet'
p734
aS'romancer'
p735
aS'crooked'
p736
aS'capiche'
p737
aS'champagne'
p738
aS'lipped'
p739
aS'men'
p740
aS'jobs'
p741
aS'preach'
p742
aS'dartboard'
p743
aS'however'
p744
aS'blame'
p745
aS'white'
p746
aS'shotty'
p747
aS'spare'
p748
aS'joe'
p749
aS'screeches'
p750
aS'lyrical'
p751
aS'roller'
p752
aS'thumb'
p753
aS'cop'
p754
aS'tantrum'
p755
aS'accident'
p756
aS'robberies'
p757
aS'pimping'
p758
aS'ill'
p759
aS'accordion'
p760
aS'bobbalobs'
p761
aS'retarded'
p762
aS'nils'
p763
aS'witch'
p764
aS'swallow'
p765
aS'jello'
p766
aS'asked'
p767
aS'load'
p768
aS'among'
p769
aS'cheerleaders'
p770
aS'drunk'
p771
aS'battery'
p772
aS'pot'
p773
aS'smashing'
p774
aS'walk'
p775
aS'reborn'
p776
aS'twin'
p777
aS'dancer'
p778
aS'simply'
p779
aS'tits'
p780
aS"rockin'"
p781
aS'trust'
p782
aS'tornado'
p783
aS"who'd'a"
p784
aS'beef'
p785
aS'glocks'
p786
aS"co's"
p787
aS'toothpaste'
p788
aS'dub'
p789
aS"ma'am"
p790
aS'madvillain'
p791
aS'jerks'
p792
aS'pc'
p793
aS'damn'
p794
aS'stanzas'
p795
aS'poet'
p796
aS'fry'
p797
aS'mary'
p798
aS'cuckoo'
p799
aS'chippendales'
p800
aS'foes'
p801
aS'schizo'
p802
aS'mind'
p803
aS"what's"
p804
aS'overthrow'
p805
aS'stripping'
p806
aS'fest'
p807
aS'chase'
p808
aS'curves'
p809
aS'child'
p810
aS'kicks'
p811
aS"po'"
p812
aS'haters'
p813
aS'chill'
p814
aS'save'
p815
aS'fur'
p816
aS'gnu'
p817
aS'frozen'
p818
aS'bill'
p819
aS'will'
p820
aS'wild'
p821
aS'pressure'
p822
aS'overproof'
p823
aS'imagination'
p824
aS'grip'
p825
aS'vest'
p826
aS'played'
p827
aS'meeting'
p828
aS'shame'
p829
aS'minds'
p830
aS'stoppa'
p831
aS'ransom'
p832
aS'tattoo'
p833
aS'different'
p834
aS'shirt'
p835
aS'choking'
p836
aS'una'
p837
aS'pay'
p838
aS'fewer'
p839
aS'patient'
p840
aS'babies'
p841
aS'peoples'
p842
aS'vegetable'
p843
aS'plates'
p844
aS'gets'
p845
aS'week'
p846
aS'fatty'
p847
aS'chauvinistic'
p848
aS'screw'
p849
aS"devil's"
p850
aS"skippin'"
p851
aS'dopest'
p852
aS'spree'
p853
aS'sandals'
p854
aS'stack'
p855
aS'destruction'
p856
aS'barry'
p857
aS'older'
p858
aS'rollers'
p859
aS'incredible'
p860
aS'kept'
p861
aS"fox'"
p862
aS'veal'
p863
aS'comes'
p864
aS'twirl'
p865
aS'audio'
p866
aS'charged'
p867
aS'coaster'
p868
aS'departed'
p869
aS'money'
p870
aS"should've"
p871
aS'hands'
p872
aS'gun'
p873
aS'risking'
p874
aS'flea'
p875
aS'mistakes'
p876
aS'thanks'
p877
aS'fishscale'
p878
aS'yes'
p879
aS'rover'
p880
aS'dipped'
p881
aS'hated'
p882
aS'scales'
p883
aS'day'
p884
aS'atrocities'
p885
aS'verse'
p886
aS'book'
p887
aS'inner'
p888
aS'rumor'
p889
aS'versa'
p890
aS'wet'
p891
aS'necks'
p892
aS'hat'
p893
aS'smart'
p894
aS'gave'
p895
aS'stewed'
p896
aS'game'
p897
aS'bboy'
p898
aS'bit'
p899
aS"shmoe's"
p900
aS'dreams'
p901
aS'knock'
p902
aS'lost'
p903
aS'aching'
p904
aS'should'
p905
aS'glitters'
p906
aS'holes'
p907
aS'miracle'
p908
aS'lightning'
p909
aS'clap'
p910
aS'scurl'
p911
aS'shinola'
p912
aS'crowd'
p913
aS'doll'
p914
aS'sends'
p915
aS'tacks'
p916
aS'dead'
p917
aS'l'
aS'hair'
p918
aS'nodoz'
p919
aS'escape'
p920
aS'beatrhyme'
p921
aS'bore'
p922
aS'rules'
p923
aS'slice'
p924
aS'cooper'
p925
aS'mood'
p926
aS'lockdown'
p927
aS'overly'
p928
aS'ice'
p929
aS'everything'
p930
aS'jalopy'
p931
aS'masked'
p932
aS'lard'
p933
aS'knife'
p934
aS'knew'
p935
aS'glows'
p936
aS'bold'
p937
aS'word'
p938
aS'nails'
p939
aS'trees'
p940
aS'blooper'
p941
aS'broken'
p942
aS'host'
p943
aS'nerves'
p944
aS'crap'
p945
aS'post'
p946
aS'exciting'
p947
aS'shine'
p948
aS'about'
p949
aS'rare'
p950
aS'tweeters'
p951
aS'biscuit'
p952
aS'typeface'
p953
aS'meal'
p954
aS'chrome'
p955
aS"askin'"
p956
aS'nothing'
p957
aS'stand'
p958
aS'tomb'
p959
aS'luck'
p960
aS'emcee'
p961
aS'plan'
p962
aS'ladies'
p963
aS'terrorists'
p964
aS'crying'
p965
aS'bound'
p966
aS'three'
p967
aS"'bout"
p968
aS'd'
aS'fers'
p969
aS'shoppa'
p970
aS'capped'
p971
aS'joyce'
p972
aS'truancy'
p973
aS'smells'
p974
aS'hitting'
p975
aS'van'
p976
aS'eleven'
p977
aS'hip'
p978
aS'mack'
p979
aS'plots'
p980
aS'sock'
p981
aS'spots'
p982
aS'grave'
p983
aS'war'
p984
aS'building'
p985
aS'himself'
p986
aS'overgrown'
p987
aS'deaf'
p988
aS'bitches'
p989
aS'mics'
p990
aS'escrow'
p991
aS'taken'
p992
aS'soprano'
p993
aS'gosh'
p994
aS'nonviolence'
p995
aS'tellie'
p996
aS'tab'
p997
aS'hop'
p998
aS'wife'
p999
aS'wellskilled'
p1000
aS'um'
p1001
aS"crew'll"
p1002
aS'taught'
p1003
aS'uh'
p1004
aS'daddy'
p1005
aS'dare'
p1006
aS'gone'
p1007
aS'scandalous'
p1008
aS'taste'
p1009
aS'am'
p1010
aS'pie'
p1011
aS'thunk'
p1012
aS"mc's"
p1013
aS'mold'
p1014
aS'cream'
p1015
aS'brethren'
p1016
aS'spell'
p1017
aS'maybe'
p1018
aS'jesus'
p1019
aS'relax'
p1020
aS"strippin'"
p1021
aS'special'
p1022
aS'sick'
p1023
aS'granite'
p1024
aS'manhattan'
p1025
aS'junk'
p1026
aS'star'
p1027
aS'toad'
p1028
aS'diet'
p1029
aS'brew'
p1030
aS'midget'
p1031
aS'snitch'
p1032
aS'humor'
p1033
aS'knishes'
p1034
aS'weekend'
p1035
aS'sides'
p1036
aS'squeal'
p1037
aS'ghost'
p1038
aS'loony'
p1039
aS'coat'
p1040
aS'faster'
p1041
aS'vice'
p1042
aS"yo'"
p1043
aS'slap'
p1044
aS'mask'
p1045
aS'daily'
p1046
aS'admiring'
p1047
aS'feud'
p1048
aS"skin'ded"
p1049
aS'hella'
p1050
aS'teeth'
p1051
aS'wake'
p1052
aS'starting'
p1053
aS'stacks'
p1054
a(dp1055
g24
I17
sg308
I161
sg301
I132
sg166
I733
sg302
I1036
sg303
I231
sg304
I1047
sg305
I274
sg306
I495
sg307
I487
sg812
I668
sg83
I360
sg312
I319
sg370
I294
sg314
I648
sg589
I968
sg930
I276
sg167
I948
sg316
I987
sg746
I1011
sg318
I224
sg2
I919
sg320
I960
sg321
I252
sg168
I679
sg322
I1035
sg558
I1053
sg169
I110
sg323
I848
sg324
I83
sg325
I31
sg326
I432
sg170
I708
sg171
I291
sg328
I790
sg25
I548
sg202
I273
sg331
I460
sg332
I285
sg46
I882
sg938
I1030
sg334
I112
sg335
I511
sg336
I741
sg337
I172
sg338
I915
sg600
I1001
sg526
I508
sg340
I321
sg341
I1016
sg172
I509
sg536
I108
sg839
I301
sg465
I642
sg212
I497
sg344
I897
sg174
I686
sg345
I358
sg346
I156
sg175
I444
sg348
I171
sg431
I1033
sg349
I694
sg350
I883
sg351
I907
sg311
I454
sg176
I847
sg354
I856
sg840
I650
sg356
I616
sg705
I362
sg177
I87
sg456
I176
sg19
I1003
sg359
I1008
sg360
I1037
sg668
I30
sg277
I620
sg355
I725
sg179
I4
sg36
I602
sg363
I32
sg180
I272
sg720
I76
sg806
I850
sg365
I553
sg181
I336
sg242
I499
sg423
I519
sg368
I169
sg369
I953
sg182
I412
sg815
I731
sg821
I1020
sg183
I931
sg57
I502
sg734
I554
sg372
I752
sg373
I852
sg374
I1022
sg375
I478
sg376
I135
sg481
I858
sg377
I218
sg184
I99
sg84
I375
sg259
I979
sg378
I203
sg379
I165
sg380
I88
sg381
I463
sg16
I589
sg936
I357
sg97
I909
sg386
I498
sg387
I443
sg388
I91
sg389
I966
sg113
I445
sg185
I643
sg186
I512
sg391
I524
sg392
I441
sg393
I9
sg313
I279
sg395
I326
sg692
I533
sg110
I286
sg396
I723
sg900
I762
sg187
I109
sg188
I684
sg398
I25
sg189
I284
sg994
I369
sg400
I309
sg401
I666
sg402
I964
sg138
I280
sg403
I283
sg265
I952
sg405
I1045
sg406
I649
sg407
I122
sg408
I41
sg409
I241
sg410
I368
sg411
I192
sg696
I875
sg716
I626
sg37
I880
sg412
I573
sg112
I583
sg413
I810
sg414
I908
sg439
I690
sg415
I1056
sg416
I308
sg13
I623
sg418
I628
sg419
I944
sg420
I376
sg421
I873
sg86
I15
sg422
I839
sg300
I106
sg424
I521
sg425
I51
sg194
I424
sg45
I235
sg426
I711
sg195
I353
sg114
I588
sg193
I316
sg704
I576
sg87
I564
sg428
I529
sg233
I500
sg429
I1032
sg430
I604
sg20
I904
sg160
I348
sg352
I811
sg432
I984
sg115
I124
sg433
I587
sg116
I586
sg434
I120
sg289
I562
sg382
I492
sg501
I938
sg394
I151
sg436
I183
sg437
I670
sg117
I961
sg663
I352
sg438
I437
sg703
I551
sg572
I884
sg196
I414
sg197
I405
sg357
I782
sg223
I989
sg442
I672
sg443
I70
sg997
I865
sg445
I133
sg446
I419
sg447
I736
sg448
I841
sg449
I520
sg451
I996
sg452
I154
sg453
I693
sg695
I558
sg454
I781
sg455
I97
sg34
I438
sg89
I436
sg832
I688
sg119
I525
sg904
I7
sg458
I817
sg459
I29
sg72
I447
sg460
I682
sg461
I647
sg462
I266
sg199
I936
sg463
I561
sg237
I842
sg124
I12
sg200
I820
sg631
I978
sg466
I913
sg775
I981
sg467
I287
sg469
I85
sg471
I384
sg472
I379
sg201
I47
sg73
I537
sS'a'
I2
sg473
I700
sg574
I945
sg474
I595
sg475
I903
sg329
I569
sg1040
I160
sg198
I747
sg537
I704
sg178
I304
sg218
I902
sg639
I506
sg480
I864
sg457
I705
sg726
I656
sg482
I18
sg330
I632
sg483
I245
sg203
I871
sg49
I890
sg485
I259
sg486
I764
sg32
I232
sg487
I327
sg488
I808
sg714
I563
sg11
I1054
sg161
I641
sg470
I243
sg492
I763
sg717
I427
sg205
I408
sg206
I162
sg90
I840
sg493
I254
sg718
I594
sg494
I114
sg632
I872
sg79
I804
sg496
I35
sg497
I378
sg498
I887
sg760
I6
sg364
I976
sg499
I513
sg770
I142
sg739
I507
sg502
I1038
sg251
I73
sg505
I98
sg506
I568
sg507
I148
sg121
I894
sg508
I893
sg509
I196
sg510
I805
sg315
I27
sg122
I1049
sg81
I985
sg149
I320
sg512
I536
sg514
I422
sg515
I193
sg268
I253
sg517
I831
sg17
I898
sg518
I388
sg875
I310
sg91
I613
sg884
I204
sg520
I590
sg968
I0
sg521
I544
sg275
I552
sg523
I19
sg524
I248
sg18
I1025
sg670
I380
sg339
I784
sg527
I844
sg528
I947
sg529
I328
sg530
I999
sg209
I75
sg210
I488
sg960
I526
sg532
I275
sg533
I229
sg534
I163
sg535
I393
sg58
I1043
sg123
I965
sg873
I383
sg1003
I878
sg173
I382
sg538
I307
sg539
I1044
sg540
I633
sg211
I658
sg1022
I816
sg38
I634
sg343
I943
sg213
I365
sg542
I16
sg543
I94
sg544
I322
sg214
I361
sg545
I937
sg546
I119
sg547
I720
sg191
I696
sg240
I853
sg551
I771
sg43
I689
sg552
I680
sg39
I370
sg553
I823
sg555
I773
sg556
I40
sg637
I780
sg557
I774
sg850
I215
sg889
I724
sg385
I221
sg559
I239
sg560
I433
sg561
I331
sg562
I577
sg563
I202
sg564
I1051
sg215
I37
sg976
I967
sg566
I178
sg567
I128
sg568
I1029
sg569
I737
sg570
I1042
sg571
I263
sS'g'
I338
sg216
I1006
sg125
I179
sg48
I801
sg59
I473
sg217
I901
sg573
I430
sg733
I305
sg575
I556
sg595
I80
sg576
I28
sg577
I493
sg98
I1040
sg266
I819
sg60
I295
sg580
I56
sg581
I485
sg582
I697
sg1019
I466
sg583
I1046
sg820
I1021
sg219
I233
sg593
I516
sg585
I209
sg586
I175
sg587
I813
sg588
I661
sg347
I629
sg590
I924
sg51
I1
sg591
I227
sg592
I381
sg594
I467
sg327
I131
sg220
I496
sg208
I593
sg221
I236
sg40
I892
sg597
I44
sg255
I795
sg107
I914
sg598
I250
sg222
I477
sg599
I916
sg616
I228
sg601
I815
sg624
I63
sg602
I281
sg723
I10
sg693
I683
sg604
I707
sg605
I100
sg606
I766
sg607
I598
sg886
I972
sg92
I925
sg608
I807
sg54
I618
sg610
I177
sg62
I886
sg611
I836
sg224
I1018
sg747
I768
sg225
I69
sg612
I479
sg613
I677
sg724
I293
sg615
I211
sg984
I983
sg617
I1055
sg226
I545
sg618
I84
sg620
I777
sg621
I860
sg622
I455
sg1018
I546
sg75
I798
sg126
I510
sg625
I675
sg127
I72
sg26
I26
sg626
I939
sg627
I288
sg628
I977
sg144
I517
sg803
I570
sg630
I300
sg809
I191
sg495
I695
sg52
I732
sg120
I855
sg633
I387
sg41
I399
sg973
I940
sg76
I597
sg635
I1034
sg636
I343
sg227
I749
sg849
I743
sg638
I756
sg479
I739
sg640
I565
sg61
I889
sg99
I619
sg641
I799
sg642
I1057
sg643
I611
sg143
I812
sg128
I869
sg646
I213
sg735
I719
sg647
I712
sg129
I271
sg648
I351
sg230
I24
sg649
I645
sg650
I905
sg783
I928
sg651
I691
sg935
I481
sg652
I101
sg653
I137
sg654
I644
sg490
I754
sg655
I584
sg130
I585
sg656
I22
sg657
I181
sg957
I612
sg979
I531
sg131
I1017
sg983
I374
sg660
I356
sg661
I837
sg866
I46
sg664
I572
sg260
I796
sg666
I48
sg132
I806
sg94
I314
sg667
I223
sg133
I282
sg890
I971
sg1030
I103
sg614
I372
sg234
I123
sg671
I655
sg95
I767
sg672
I480
sg673
I528
sg674
I772
sg675
I687
sg676
I709
sg677
I255
sg678
I104
sg679
I45
sg680
I751
sg681
I745
sg682
I404
sg609
I685
sg683
I234
sg684
I144
sg685
I55
sg686
I303
sg687
I900
sg50
I625
sg689
I992
sg235
I791
sg764
I1024
sg690
I296
sg691
I740
sg702
I429
sg109
I462
sg987
I637
sg694
I117
sg190
I186
sg134
I627
sg111
I81
sg697
I501
sg698
I932
sg699
I340
sg700
I392
sg701
I635
sg519
I222
sg978
I417
sg35
I225
sg440
I242
sg64
I418
sg236
I390
sg450
I330
sg706
I277
sg22
I345
sg707
I64
sg708
I435
sg464
I205
sg709
I206
sg710
I152
sg238
I158
sg711
I344
sg712
I578
sg713
I988
sg489
I615
sg715
I1031
sg782
I942
sg399
I256
sg10
I400
sg468
I367
sg42
I415
sg719
I349
sg982
I821
sg728
I592
sg722
I54
sg239
I53
sg549
I363
sg27
I757
sg93
I238
sg565
I240
sg491
I1027
sg47
I922
sg135
I267
sg241
I1039
sg725
I258
sg578
I453
sg727
I910
sg729
I614
sg603
I543
sg68
I962
sg732
I746
sg634
I155
sg855
I826
sg1000
I998
sg231
I930
sg243
I71
sg476
I170
sg65
I727
sg736
I187
sg737
I126
sg136
I665
sg753
I911
sg66
I268
sg137
I896
sg390
I995
sg245
I681
sg70
I423
sg738
I134
sg77
I990
sg740
I557
sg741
I468
sg742
I676
sg743
I201
sg744
I439
sg745
I82
sg548
I167
sg748
I814
sg749
I469
sg750
I742
sg246
I302
sg139
I166
sg751
I527
sg752
I717
sg550
I832
sg754
I174
sg755
I874
sg756
I5
sg757
I715
sg258
I539
sg759
I448
sg74
I402
sg830
I571
sg761
I89
sg247
I929
sg762
I706
sg763
I605
sg852
I237
sg765
I862
sg766
I464
sg859
I718
sg767
I38
sg864
I168
sg249
I651
sg768
I514
sg769
I21
sg500
I212
sg771
I249
sg772
I59
sg250
I863
sg773
I674
sg371
I559
sg774
I793
sg100
I671
sg721
I426
sg776
I702
sg777
I950
sg778
I199
sg779
I778
sg780
I918
sg781
I716
sg730
I857
sg503
I401
sg784
I1013
sg785
I66
sg786
I355
sg787
I157
sg857
I58
sg789
I251
sg967
I906
sg141
I67
sg791
I534
sg975
I420
sg793
I653
sg252
I68
sg794
I198
sg795
I829
sg796
I669
sg797
I335
sg253
I986
sg254
I394
sg798
I540
sg1012
I912
sg142
I503
sg965
I189
sg801
I318
sg802
I738
sg629
I946
sg804
I1004
sg891
I1002
sg645
I410
sg285
I1023
sg807
I298
sg1052
I980
sg1044
I787
sg810
I145
sg811
I476
sg310
I636
sg813
I398
sg814
I146
sg244
I129
sg272
I395
sg816
I337
sg799
I190
sg82
I779
sg817
I359
sg818
I334
sg819
I74
sg353
I710
sg358
I935
sg256
I956
sg145
I1009
sg894
I792
sg758
I659
sg823
I639
sg822
I678
sg204
I753
sg892
I596
sg229
I1028
sg153
I699
sg826
I973
sg309
I49
sg827
I664
sg15
I456
sg6
I458
sg147
I788
sg829
I755
sg261
I366
sg5
I450
sg808
I138
sg525
I580
sg833
I877
sg834
I217
sg835
I760
sg836
I149
sg478
I226
sg838
I652
sg53
I535
sg262
I729
sg148
I599
sg972
I470
sg923
I722
sg841
I50
sg842
I654
sg843
I970
sg844
I662
sg845
I347
sg12
I459
sg846
I993
sg263
I57
sg847
I292
sg848
I140
sg579
I219
sg484
I247
sg101
I315
sg264
I389
sg851
I786
sg150
I726
sg108
I601
sg853
I822
sg854
I730
sg596
I164
sg856
I214
sg861
I474
sg858
I622
sS'i'
I442
sg140
I1015
sg8
I607
sg151
I997
sg862
I329
sg292
I917
sg267
I1026
sg863
I969
sg248
I125
sg865
I951
sg516
I868
sg21
I891
sg662
I313
sg269
I748
sg867
I136
sg868
I159
sg869
I210
sg152
I472
sg85
I333
sg30
I1041
sg870
I581
sg871
I770
sg872
I391
sg228
I800
sg874
I714
sg665
I324
sg876
I575
sg877
I888
sg878
I306
sg879
I1048
sg880
I721
sg881
I220
sg882
I397
sg883
I734
sg271
I385
sg554
I311
sg790
I530
sg1021
I849
sg1006
I200
sg800
I147
sg805
I640
sg384
I260
sg893
I396
sg257
I475
sg895
I342
sg825
I377
sg896
I838
sg366
I631
sg154
I34
sg273
I371
sg274
I698
sg342
I899
sg155
I1014
sg897
I339
sg623
I1000
sg898
I60
sg28
I486
sg899
I78
sg397
I846
sg4
I1052
sg901
I246
sg3
I505
sg902
I484
sS'd'
I194
sg903
I522
sg905
I769
sg906
I354
sg837
I959
sg908
I574
sg909
I504
sg88
I406
sg156
I262
sg157
I143
sg276
I803
sg910
I153
sg911
I744
sg78
I713
sg158
I621
sg912
I759
sg913
I188
sg914
I230
sg915
I750
sg916
I866
sg688
I921
sg988
I208
sg102
I52
sg917
I207
sS'l'
I489
sg918
I386
sg159
I861
sg919
I608
sg920
I269
sg1027
I830
sg922
I95
sg924
I789
sg925
I173
sg926
I582
sg14
I325
sg435
I105
sg1005
I195
sg928
I638
sg929
I446
sg504
I317
sg427
I867
sg931
I461
sg932
I542
sg933
I491
sg934
I482
sg29
I62
sg63
I1012
sg362
I261
sg937
I90
sg67
I116
sg361
I61
sg939
I591
sg940
I934
sg941
I86
sg942
I107
sg943
I434
sg831
I843
sg1013
I547
sg944
I600
sg945
I182
sg946
I673
sg947
I278
sg80
I859
sg948
I758
sg417
I346
sg949
I3
sg950
I692
sg951
I949
sg513
I180
sg659
I457
sg9
I617
sg952
I77
sg953
I955
sg511
I927
sg954
I549
sg955
I150
sg956
I39
sg958
I828
sg278
I8
sg959
I923
sg531
I550
sg23
I630
sg961
I265
sg962
I660
sg963
I490
sg7
I411
sg964
I885
sg279
I14
sg966
I96
sg207
I244
sg232
I646
sg969
I297
sg970
I765
sg971
I127
sg319
I341
sg383
I606
sg522
I560
sg974
I794
sg792
I465
sg404
I845
sg333
I93
sg977
I264
sg658
I728
sg980
I667
sg103
I895
sg981
I802
sg280
I413
sg584
I289
sg104
I833
sg192
I954
sg162
I130
sg888
I452
sg163
I523
sg118
I111
sg788
I926
sg281
I933
sg1038
I350
sg105
I403
sg986
I416
sg644
I115
sg989
I79
sg990
I566
sg31
I118
sg991
I270
sg992
I870
sg106
I407
sg993
I809
sg282
I421
sg283
I825
sg270
I941
sg885
I43
sg96
I33
sg995
I609
sg164
I532
sg996
I881
sg998
I428
sg284
I1007
sg828
I555
sg999
I1019
sg731
I312
sg286
I963
sg146
I494
sg1001
I958
sg1002
I185
sg477
I431
sg1004
I957
sg287
I121
sg317
I332
sg1007
I364
sg288
I663
sg1008
I735
sg1009
I876
sg1045
I541
sg1010
I20
sg1011
I657
sg165
I23
sg824
I449
sg55
I36
sg56
I42
sg367
I139
sg1014
I579
sg290
I141
sg44
I761
sg1015
I184
sg1016
I102
sg291
I13
sg1017
I818
sg669
I854
sg444
I982
sg860
I451
sg33
I610
sg1020
I703
sg69
I1005
sg887
I92
sg541
I1010
sg1023
I775
sg441
I851
sg1024
I373
sg293
I323
sg294
I701
sg1025
I538
sg295
I603
sg1026
I471
sg921
I65
sg1028
I920
sg1051
I879
sg296
I257
sg1029
I216
sg297
I835
sg1031
I567
sg71
I975
sg1032
I797
sg1033
I440
sg1034
I483
sg1035
I994
sg1036
I776
sg1037
I824
sg985
I113
sg1039
I518
sg1041
I290
sg1042
I974
sg1043
I1050
sg907
I425
sg1046
I197
sg1047
I11
sg1048
I299
sg1049
I785
sg1050
I409
sg298
I991
sg927
I515
sg619
I783
sg1053
I834
sg1054
I827
sg299
I624
s(lp1056
g968
ag51
aS'a'
ag949
ag179
ag756
ag760
ag904
ag278
ag393
ag723
ag1047
ag124
ag291
ag279
ag86
ag542
ag24
ag482
ag523
ag1010
ag769
ag656
ag165
ag230
ag398
ag26
ag315
ag576
ag459
ag668
ag325
ag363
ag96
ag154
ag496
ag55
ag215
ag767
ag956
ag556
ag408
ag56
ag885
ag597
ag679
ag866
ag201
ag666
ag309
ag841
ag425
ag102
ag239
ag722
ag685
ag580
ag263
ag857
ag772
ag898
ag361
ag29
ag624
ag707
ag921
ag785
ag141
ag252
ag225
ag443
ag243
ag127
ag251
ag819
ag209
ag720
ag952
ag899
ag989
ag595
ag111
ag745
ag324
ag618
ag469
ag941
ag177
ag380
ag761
ag937
ag388
ag887
ag333
ag543
ag922
ag966
ag455
ag505
ag184
ag605
ag652
ag1016
ag1030
ag678
ag435
ag300
ag942
ag536
ag187
ag169
ag118
ag334
ag985
ag494
ag644
ag67
ag694
ag31
ag546
ag434
ag287
ag407
ag234
ag115
ag248
ag737
ag971
ag567
ag244
ag162
ag327
ag301
ag445
ag738
ag376
ag867
ag653
ag808
ag367
ag848
ag290
ag770
ag157
ag684
ag810
ag814
ag800
ag507
ag836
ag955
ag394
ag710
ag910
ag452
ag634
ag346
ag787
ag238
ag868
ag1040
ag308
ag206
ag534
ag596
ag379
ag139
ag548
ag864
ag368
ag476
ag348
ag337
ag925
ag754
ag586
ag456
ag610
ag566
ag125
ag513
ag657
ag945
ag436
ag1015
ag1002
ag190
ag736
ag913
ag965
ag799
ag809
ag411
ag515
aS'd'
ag1005
ag509
ag1046
ag794
ag778
ag1006
ag743
ag563
ag378
ag884
ag464
ag709
ag917
ag988
ag585
ag869
ag615
ag500
ag646
ag856
ag850
ag1029
ag834
ag377
ag579
ag881
ag385
ag519
ag667
ag318
ag35
ag478
ag591
ag616
ag533
ag914
ag303
ag32
ag219
ag683
ag45
ag221
ag852
ag93
ag559
ag565
ag409
ag440
ag470
ag207
ag483
ag901
ag484
ag524
ag771
ag598
ag789
ag321
ag268
ag493
ag677
ag399
ag296
ag725
ag485
ag384
ag362
ag156
ag571
ag977
ag961
ag462
ag135
ag66
ag920
ag991
ag129
ag180
ag202
ag305
ag532
ag930
ag706
ag947
ag313
ag138
ag602
ag133
ag403
ag189
ag332
ag110
ag467
ag627
ag584
ag1041
ag171
ag847
ag724
ag370
ag60
ag690
ag969
ag807
ag1048
ag630
ag839
ag246
ag686
ag178
ag733
ag878
ag538
ag416
ag400
ag875
ag554
ag731
ag662
ag94
ag101
ag193
ag504
ag801
ag312
ag149
ag340
ag544
ag293
ag665
ag14
ag395
ag487
ag529
ag862
ag450
ag561
ag317
ag85
ag818
ag797
ag181
ag816
aS'g'
ag897
ag699
ag319
ag895
ag636
ag711
ag22
ag417
ag845
ag160
ag719
ag1038
ag648
ag663
ag195
ag906
ag786
ag660
ag936
ag345
ag817
ag83
ag214
ag705
ag549
ag1007
ag213
ag261
ag468
ag410
ag994
ag39
ag273
ag614
ag1024
ag983
ag84
ag420
ag825
ag497
ag472
ag670
ag592
ag173
ag873
ag471
ag271
ag918
ag633
ag518
ag264
ag236
ag872
ag700
ag535
ag254
ag272
ag893
ag882
ag813
ag41
ag10
ag503
ag74
ag105
ag682
ag197
ag88
ag106
ag205
ag1050
ag645
ag7
ag182
ag280
ag196
ag42
ag986
ag978
ag64
ag446
ag975
ag282
ag514
ag70
ag194
ag907
ag721
ag717
ag998
ag702
ag573
ag477
ag326
ag560
ag943
ag708
ag89
ag438
ag34
ag744
ag1033
ag392
aS'i'
ag387
ag175
ag113
ag929
ag72
ag759
ag824
ag5
ag860
ag888
ag578
ag311
ag622
ag15
ag659
ag6
ag12
ag331
ag931
ag109
ag381
ag766
ag792
ag1019
ag594
ag741
ag749
ag972
ag1026
ag152
ag59
ag861
ag257
ag811
ag222
ag375
ag612
ag672
ag935
ag934
ag1034
ag902
ag581
ag28
ag307
ag210
aS'l'
ag963
ag933
ag382
ag577
ag146
ag306
ag220
ag212
ag386
ag242
ag233
ag697
ag57
ag142
ag909
ag3
ag639
ag739
ag526
ag172
ag126
ag335
ag186
ag499
ag768
ag927
ag593
ag144
ag1039
ag423
ag449
ag424
ag903
ag163
ag391
ag119
ag960
ag751
ag673
ag428
ag790
ag979
ag164
ag692
ag791
ag53
ag512
ag73
ag1025
ag258
ag798
ag1045
ag932
ag603
ag521
ag226
ag1018
ag1013
ag25
ag954
ag531
ag703
ag275
ag365
ag734
ag828
ag575
ag740
ag695
ag371
ag522
ag463
ag289
ag714
ag87
ag640
ag990
ag1031
ag506
ag329
ag803
ag830
ag664
ag412
ag908
ag876
ag704
ag562
ag712
ag1014
ag525
ag870
ag926
ag112
ag655
ag130
ag116
ag433
ag114
ag16
ag520
ag939
ag728
ag208
ag718
ag474
ag892
ag76
ag607
ag148
ag944
ag108
ag36
ag295
ag430
ag763
ag383
ag8
ag919
ag995
ag33
ag643
ag957
ag91
ag729
ag489
ag356
ag9
ag54
ag99
ag277
ag158
ag858
ag13
ag299
ag50
ag716
ag134
ag418
ag347
ag23
ag366
ag330
ag540
ag38
ag701
ag310
ag987
ag928
ag823
ag805
ag161
ag465
ag185
ag654
ag649
ag232
ag461
ag314
ag406
ag840
ag249
ag838
ag793
ag842
ag671
ag726
ag1011
ag211
ag758
ag962
ag588
ag844
ag288
ag827
ag136
ag401
ag980
ag812
ag796
ag437
ag100
ag442
ag946
ag773
ag625
ag742
ag613
ag822
ag168
ag552
ag245
ag460
ag693
ag188
ag609
ag174
ag675
ag832
ag43
ag439
ag651
ag950
ag453
ag349
ag495
ag191
ag582
ag274
ag153
ag473
ag294
ag776
ag1020
ag537
ag457
ag762
ag604
ag170
ag676
ag353
ag426
ag647
ag78
ag874
ag757
ag781
ag752
ag859
ag735
ag547
ag880
ag923
ag396
ag889
ag355
ag150
ag65
ag658
ag262
ag854
ag815
ag52
ag166
ag883
ag1008
ag447
ag569
ag802
ag479
ag691
ag336
ag750
ag849
ag911
ag681
ag732
ag198
ag269
ag227
ag915
ag680
ag372
ag204
ag490
ag829
ag638
ag27
ag948
ag912
ag835
ag44
ag900
ag492
ag486
ag970
ag606
ag95
ag747
ag905
ag871
ag551
ag674
ag555
ag557
ag1023
ag1036
ag620
ag779
ag82
ag637
ag454
ag357
ag619
ag339
ag1049
ag851
ag1044
ag147
ag924
ag328
ag235
ag894
ag774
ag974
ag255
ag260
ag1032
ag75
ag641
ag228
ag48
ag981
ag276
ag79
ag510
ag132
ag608
ag488
ag993
ag413
ag352
ag143
ag587
ag748
ag601
ag1022
ag458
ag1017
ag266
ag200
ag982
ag853
ag553
ag1037
ag283
ag855
ag1054
ag958
ag795
ag1027
ag517
ag550
ag104
ag1053
ag297
ag611
ag661
ag896
ag422
ag90
ag448
ag237
ag831
ag527
ag404
ag397
ag176
ag323
ag1021
ag806
ag441
ag373
ag240
ag669
ag120
ag354
ag730
ag481
ag80
ag621
ag159
ag765
ag250
ag480
ag997
ag916
ag427
ag516
ag128
ag992
ag203
ag632
ag421
ag755
ag696
ag1009
ag833
ag1003
ag1051
ag37
ag996
ag46
ag350
ag572
ag964
ag62
ag498
ag877
ag61
ag49
ag21
ag40
ag508
ag121
ag103
ag137
ag344
ag17
ag342
ag687
ag217
ag218
ag475
ag20
ag650
ag967
ag351
ag414
ag97
ag727
ag753
ag1012
ag466
ag107
ag338
ag599
ag292
ag780
ag2
ag1028
ag688
ag47
ag959
ag590
ag92
ag788
ag511
ag783
ag247
ag231
ag183
ag698
ag281
ag940
ag358
ag199
ag545
ag501
ag626
ag973
ag270
ag782
ag343
ag419
ag574
ag629
ag528
ag167
ag951
ag777
ag865
ag265
ag369
ag192
ag953
ag256
ag1004
ag1001
ag837
ag320
ag117
ag68
ag286
ag402
ag123
ag389
ag976
ag589
ag863
ag843
ag890
ag886
ag826
ag1042
ag71
ag364
ag628
ag631
ag259
ag1052
ag775
ag444
ag984
ag432
ag81
ag253
ag316
ag713
ag223
ag77
ag298
ag689
ag846
ag1035
ag390
ag451
ag151
ag1000
ag530
ag623
ag600
ag891
ag19
ag804
ag69
ag216
ag284
ag359
ag145
ag541
ag746
ag63
ag784
ag155
ag140
ag341
ag131
ag224
ag999
ag821
ag820
ag374
ag285
ag764
ag18
ag267
ag491
ag229
ag568
ag938
ag715
ag429
ag431
ag635
ag322
ag302
ag360
ag502
ag241
ag98
ag30
ag570
ag58
ag539
ag405
ag583
ag304
ag879
ag122
ag1043
ag564
ag4
ag558
ag11
ag617
ag415
ag642
at.