((lp1
S'the'
p2
aS'i'
aS'you'
p3
aS'a'
aS'and'
p4
aS'to'
p5
aS'in'
p6
aS'my'
p7
aS'me'
p8
aS'that'
p9
aS'it'
p10
aS'your'
p11
aS'on'
p12
aS'like'
p13
aS'of'
p14
aS'is'
p15
aS'with'
p16
aS'all'
p17
aS'up'
p18
aS'this'
p19
aS'for'
p20
aS"i'm"
p21
aS'we'
p22
aS'know'
p23
aS'when'
p24
aS'get'
p25
aS'they'
p26
aS'be'
p27
aS'just'
p28
aS"it's"
p29
aS'got'
p30
aS'so'
p31
aS'no'
p32
aS"don't"
p33
aS'out'
p34
aS'he'
p35
aS'what'
p36
aS'but'
p37
aS'was'
p38
aS'if'
p39
aS'can'
p40
aS'now'
p41
aS'do'
p42
aS'her'
p43
aS'she'
p44
aS'love'
p45
aS'from'
p46
aS'go'
p47
aS'shit'
p48
aS"ain't"
p49
aS'nigga'
p50
aS'let'
p51
aS"that's"
p52
aS'one'
p53
aS'at'
p54
aS'see'
p55
aS'back'
p56
aS'then'
p57
aS'yeah'
p58
aS'where'
p59
aS'how'
p60
aS'say'
p61
aS'or'
p62
aS'bitch'
p63
aS'never'
p64
aS'tell'
p65
aS'down'
p66
aS'niggas'
p67
aS'fuck'
p68
aS'not'
p69
aS'him'
p70
aS'need'
p71
aS"'em"
p72
aS'off'
p73
aS'some'
p74
aS'make'
p75
aS'way'
p76
aS"i'll"
p77
aS'our'
p78
aS'want'
p79
aS'time'
p80
aS'these'
p81
aS"can't"
p82
aS'by'
p83
aS'wanna'
p84
aS'who'
p85
aS'new'
p86
aS'life'
p87
aS'feel'
p88
aS'have'
p89
aS'hold'
p90
aS'been'
p91
aS'still'
p92
aS'only'
p93
aS'his'
p94
aS'us'
p95
aS'said'
p96
aS'take'
p97
aS'ya'
p98
aS'look'
p99
aS'too'
p100
aS'right'
p101
aS'man'
p102
aS'as'
p103
aS'dna'
p104
aS'god'
p105
aS'day'
p106
aS'keep'
p107
aS'were'
p108
aS'money'
p109
aS'more'
p110
aS"hol'"
p111
aS'come'
p112
aS'there'
p113
aS"gon'"
p114
aS'could'
p115
aS'made'
p116
aS'every'
p117
aS'even'
p118
aS'are'
p119
aS'had'
p120
aS'inside'
p121
aS'ayy'
p122
aS'oh'
p123
aS'about'
p124
aS'told'
p125
aS'touch'
p126
aS'again'
p127
aS'through'
p128
aS'hard'
p129
aS'will'
p130
aS'here'
p131
aS"talkin'"
p132
aS'girl'
p133
aS'than'
p134
aS'am'
p135
aS'good'
p136
aS'believe'
p137
aS"'cause"
p138
aS'nobody'
p139
aS'give'
p140
aS'head'
p141
aS'heart'
p142
aS'first'
p143
aS's'
aS'ball'
p144
aS'them'
p145
aS'live'
p146
aS"y'all"
p147
aS'sound'
p148
aS'fall'
p149
aS'two'
p150
aS'coming'
p151
aS'since'
p152
aS"i'ma"
p153
aS'long'
p154
aS'baby'
p155
aS'high'
p156
aS'ever'
p157
aS'would'
p158
aS'everybody'
p159
aS'turn'
p160
aS'kill'
p161
aS'ass'
p162
aS'swerve'
p163
aS'hit'
p164
aS'watch'
p165
aS"you're"
p166
aS'm'
aS'talk'
p167
aS"livin'"
p168
aS'enough'
p169
aS'put'
p170
aS'find'
p171
aS'world'
p172
aS'que'
p173
aS'why'
p174
aS'other'
p175
aS'street'
p176
aS"'bout"
p177
aS'same'
p178
aS'real'
p179
aS'around'
p180
aS'tryna'
p181
aS'okay'
p182
aS'bish'
p183
aS'sit'
p184
aS'their'
p185
aS"lil'"
p186
aS'stay'
p187
aS'thing'
p188
aS'before'
p189
aS'top'
p190
aS'yes'
p191
aS'super'
p192
aS'zone'
p193
aS'maybe'
p194
aS"he's"
p195
aS'name'
p196
aS'eyes'
p197
aS'blood'
p198
aS'call'
p199
aS'somebody'
p200
aS'gold'
p201
aS'run'
p202
aS'light'
p203
aS'another'
p204
aS'came'
p205
aS'hear'
p206
aS'soul'
p207
aS'little'
p208
aS'pain'
p209
aS'show'
p210
aS'black'
p211
aS'check'
p212
aS'power'
p213
aS'always'
p214
aS'whole'
p215
aS"fuckin'"
p216
aS'pour'
p217
aS"somethin'"
p218
aS'under'
p219
aS"i'd"
p220
aS'mean'
p221
aS'mind'
p222
aS'bad'
p223
aS'left'
p224
aS'night'
p225
aS'people'
p226
aS'everything'
p227
aS'cool'
p228
aS'monster'
p229
aS'think'
p230
aS'gotta'
p231
aS'je'
p232
aS'myself'
p233
aS't'
aS'might'
p234
aS'really'
p235
aS"what's"
p236
aS'les'
p237
aS'well'
p238
aS'lost'
p239
aS'lord'
p240
aS'homie'
p241
aS'times'
p242
aS'after'
p243
aS'better'
p244
aS'bang'
p245
aS'hood'
p246
aS'rap'
p247
aS'best'
p248
aS'much'
p249
aS'old'
p250
aS'wait'
p251
aS"lookin'"
p252
aS'place'
p253
aS'pop'
p254
aS'gonna'
p255
aS'start'
p256
aS'hey'
p257
aS'yo'
p258
aS'clique'
p259
aS"nothin'"
p260
aS'probably'
p261
aS'big'
p262
aS'ride'
p263
aS'body'
p264
aS'hands'
p265
aS'ask'
p266
aS'remember'
p267
aS'hope'
p268
aS'damn'
p269
aS'bitches'
p270
aS'funk'
p271
aS'cocaine'
p272
aS'hot'
p273
aS'went'
p274
aS"feelin'"
p275
aS'feeling'
p276
aS'stop'
p277
aS'shots'
p278
aS'hand'
p279
aS'dead'
p280
aS'sure'
p281
aS'true'
p282
aS'die'
p283
aS'cold'
p284
aS'forever'
p285
aS'shot'
p286
aS'flow'
p287
aS'stand'
p288
aS'gone'
p289
aS'an'
p290
aS"yo'"
p291
aS'dollar'
p292
aS'tu'
p293
aS'pass'
p294
aS'doom'
p295
aS'rather'
p296
aS'king'
p297
aS'murder'
p298
aS'justice'
p299
aS'matter'
p300
aS'please'
p301
aS'last'
p302
aS'lives'
p303
aS'game'
p304
aS'because'
p305
aS'uh'
p306
aS'drank'
p307
aS'villain'
p308
aS'own'
p309
aS'cause'
p310
aS'jesus'
p311
aS'beat'
p312
aS'party'
p313
aS'thought'
p314
aS'killed'
p315
aS'home'
p316
aS'ho'
p317
aS'work'
p318
aS'end'
p319
aS'seen'
p320
aS'trust'
p321
aS'chill'
p322
aS'voice'
p323
aS'dreams'
p324
aS'heat'
p325
aS'gun'
p326
aS'leave'
p327
aS'heard'
p328
aS'drop'
p329
aS'city'
p330
aS'slow'
p331
aS"walkin'"
p332
aS"'til"
p333
aS'hoes'
p334
aS"couldn't"
p335
aS'wake'
p336
aS'poetic'
p337
aS'without'
p338
aS'teeth'
p339
aS'mask'
p340
aS'alright'
p341
aS'song'
p342
aS'full'
p343
aS'door'
p344
aS'tried'
p345
aS'pray'
p346
aS'done'
p347
aS'play'
p348
aS'most'
p349
aS'yawk'
p350
aS'sometimes'
p351
aS'fake'
p352
aS'faith'
p353
aS'young'
p354
aS"doin'"
p355
aS'bet'
p356
aS'face'
p357
aS'chick'
p358
aS"i've"
p359
aS'things'
p360
aS'over'
p361
aS'safe'
p362
aS'days'
p363
aS'listen'
p364
aS'took'
p365
aS'mouth'
p366
aS"there's"
p367
aS'cut'
p368
aS'child'
p369
aS'has'
p370
aS'war'
p371
aS"let's"
p372
aS'word'
p373
aS'level'
p374
aS'did'
p375
aS'going'
p376
aS'kendrick'
p377
aS'mad'
p378
aS'shake'
p379
aS'window'
p380
aS'open'
p381
aS'white'
p382
aS'wonder'
p383
aS'dark'
p384
aS'throw'
p385
aS'pool'
p386
aS'far'
p387
aS'forgive'
p388
aS'help'
p389
aS'fine'
p390
aS'straight'
p391
aS'fun'
p392
aS'used'
p393
aS'flows'
p394
aS'd'
aS'into'
p395
aS"we're"
p396
aS'peace'
p397
aS'once'
p398
aS'che'
p399
aS'few'
p400
aS'vibe'
p401
aS'move'
p402
aS"won't"
p403
aS'kiss'
p404
aS'lot'
p405
aS'mic'
p406
aS'lambo'
p407
aS'drink'
p408
aS"who's"
p409
aS'lead'
p410
aS'pussy'
p411
aS'eat'
p412
aS'paris'
p413
aS"we'll"
p414
aS'met'
p415
aS'must'
p416
aS'each'
p417
aS'free'
p418
aS'rappers'
p419
aS'away'
p420
aS'compton'
p421
aS'asked'
p422
aS'speak'
p423
aS'three'
p424
aS'save'
p425
aS'mothafuckas'
p426
aS'humble'
p427
aS'gave'
p428
aS'bottom'
p429
aS"ol'"
p430
aS'son'
p431
aS'daddy'
p432
aS'chain'
p433
aS'skin'
p434
aS'jerk'
p435
aS'alone'
p436
aS'boy'
p437
aS'fly'
p438
aS'car'
p439
aS'crazy'
p440
aS'write'
p441
aS'block'
p442
aS'years'
p443
aS'rock'
p444
aS'knew'
p445
aS'dick'
p446
aS'crime'
p447
aS'dough'
p448
aS'many'
p449
aS'crew'
p450
aS'food'
p451
aS'running'
p452
aS"mo'"
p453
aS'read'
p454
aS'broken'
p455
aS'taste'
p456
aS"buildin'"
p457
aS'louis'
p458
aS'stick'
p459
aS'broke'
p460
aS'known'
p461
aS'des'
p462
aS'nine'
p463
aS'hell'
p464
aS'hundred'
p465
aS'behind'
p466
aS'part'
p467
aS'double'
p468
aS'nights'
p469
aS'sex'
p470
aS'else'
p471
aS'fucking'
p472
aS'momma'
p473
aS'nah'
p474
aS'e'
aS'telling'
p475
aS'business'
p476
aS'bird'
p477
aS'great'
p478
aS'next'
p479
aS'stage'
p480
aS'something'
p481
aS'la'
p482
aS"weepin'"
p483
aS'which'
p484
aS"you'll"
p485
aS'fact'
p486
aS'brother'
p487
aS'wish'
p488
aS'grab'
p489
aS'walk'
p490
aS'fucked'
p491
aS'uhhuh'
p492
aS'does'
p493
aS'getting'
p494
aS'twoseat'
p495
aS'buy'
p496
aS'friends'
p497
aS'four'
p498
aS"screamin'"
p499
aS'sorry'
p500
aS'tired'
p501
aS'second'
p502
aS'blue'
p503
aS'hide'
p504
aS'brought'
p505
aS'music'
p506
aS'mf'
p507
aS'room'
p508
aS'hop'
p509
aS'wind'
p510
aS"'ye"
p511
aS'school'
p512
aS'streets'
p513
aS'dial'
p514
aS'reputation'
p515
aS'rich'
p516
aS'di'
p517
aS'coast'
p518
aS'liquor'
p519
aS'wear'
p520
aS'spit'
p521
aS'air'
p522
aS'ain'
p523
aS'bottles'
p524
aS'smoke'
p525
aS'crowd'
p526
aS'born'
p527
aS'burn'
p528
aS'plus'
p529
aS'prayer'
p530
aS'floor'
p531
aS'roll'
p532
aS'dig'
p533
aS'motherfucking'
p534
aS'should'
p535
aS'tears'
p536
aS'today'
p537
aS'means'
p538
aS'lonely'
p539
aS'et'
p540
aS'living'
p541
aS'shows'
p542
aS'million'
p543
aS'caught'
p544
aS'huh'
p545
aS'saw'
p546
aS'america'
p547
aS"goin'"
p548
aS"could've"
p549
aS'comes'
p550
aS'color'
p551
aS'west'
p552
aS'cash'
p553
aS'rhymes'
p554
aS"iiiii'm"
p555
aS'pas'
p556
aS'pay'
p557
aS'tour'
p558
aS'bodies'
p559
aS'summer'
p560
aS'mood'
p561
aS'act'
p562
aS"gnashin'"
p563
aS'johnny'
p564
aS'nerd'
p565
aS'track'
p566
aS'case'
p567
aS'fat'
p568
aS'ten'
p569
aS'hours'
p570
aS'pick'
p571
aS'eye'
p572
aS'court'
p573
aS'either'
p574
aS'dream'
p575
aS'style'
p576
aS'ye'
p577
aS'chopper'
p578
aS'house'
p579
aS'prolly'
p580
aS'least'
p581
aS'mama'
p582
aS'supposed'
p583
aS'sell'
p584
aS'reach'
p585
aS"sippin'"
p586
aS'feels'
p587
aS'wrote'
p588
aS'set'
p589
aS'close'
p590
aS'woo'
p591
aS'champagne'
p592
aS'foreign'
p593
aS'sweet'
p594
aS'whatever'
p595
aS'while'
p596
aS'pack'
p597
aS'different'
p598
aS'grind'
p599
aS'couple'
p600
aS'step'
p601
aS'metal'
p602
aS'hampton'
p603
aS'gang'
p604
aS'try'
p605
aS"leavin'"
p606
aS'cell'
p607
aS'others'
p608
aS'cray'
p609
aS'meet'
p610
aS'control'
p611
aS'thirsty'
p612
aS'perfect'
p613
aS'le'
p614
aS'front'
p615
aS'truth'
p616
aS'dive'
p617
aS'drunk'
p618
aS'si'
p619
aS'kdot'
p620
aS"wasn't"
p621
aS'wild'
p622
aS'aw'
p623
aS'kick'
p624
aS'lose'
p625
aS"gettin'"
p626
aS'throne'
p627
aS'sick'
p628
aS'dave'
p629
aS'sleep'
p630
aS'pride'
p631
aS'red'
p632
aS'bill'
p633
aS'poison'
p634
aS'daughter'
p635
aS'leaves'
p636
aS'fantastik'
p637
aS'feelings'
p638
aS'spike'
p639
aS'breathe'
p640
aS'mr'
p641
aS'honey'
p642
aS'beauty'
p643
aS'loyalty'
p644
aS'wrong'
p645
aS'lay'
p646
aS'lap'
p647
aS"they're"
p648
aS'wine'
p649
aS"hangin'"
p650
aS"m'aimes"
p651
aS'somewhere'
p652
aS'break'
p653
aS'meat'
p654
aS'l'
aS"we'd"
p655
aS'whip'
p656
aS'grade'
p657
aS'needed'
p658
aS'ton'
p659
aS'mercy'
p660
aS'mine'
p661
aS'talking'
p662
aS'strength'
p663
aS'though'
p664
aS'saying'
p665
aS'maybach'
p666
aS'encore'
p667
aS'beef'
p668
aS'lovely'
p669
aS'ugly'
p670
aS'rain'
p671
aS'hearts'
p672
aS'strap'
p673
aS'wombtil'
p674
aS'guess'
p675
aS'bound'
p676
aS'lies'
p677
aS'easy'
p678
aS'east'
p679
aS'deal'
p680
aS'fight'
p681
aS'friday'
p682
aS'until'
p683
aS'trip'
p684
aS"holdin'"
p685
aS'songs'
p686
aS'dance'
p687
aS'shoot'
p688
aS'trouble'
p689
aS'pious'
p690
aS'gum'
p691
aS'wherever'
p692
aS'boo'
p693
aS'wrongs'
p694
aS"motherfuckin'"
p695
aS'ooh'
p696
aS'drown'
p697
aS'chip'
p698
aS'stole'
p699
aS'spot'
p700
aS'natural'
p701
aS'neck'
p702
aS'switch'
p703
aS'african'
p704
aS'tall'
p705
aS'brain'
p706
aS'ours'
p707
aS"shouldn't"
p708
aS'care'
p709
aS'punk'
p710
aS'blind'
p711
aS'yourself'
p712
aS'ring'
p713
aS'brains'
p714
aS'turned'
p715
aS'horsepower'
p716
aS'note'
p717
aS'paid'
p718
aS'pair'
p719
aS'slaves'
p720
aS'dice'
p721
aS'truly'
p722
aS'signs'
p723
aS'between'
p724
aS'blame'
p725
aS'pole'
p726
aS'mary'
p727
aS'thousand'
p728
aS'those'
p729
aS'doctor'
p730
aS'weed'
p731
aS"he'll"
p732
aS'verse'
p733
aS'hallelujah'
p734
aS'making'
p735
aS'side'
p736
aS"tryin'"
p737
aS'loc'
p738
aS'racism'
p739
aS'cats'
p740
aS'low'
p741
aS'bubble'
p742
aS'pull'
p743
aS'backstroke'
p744
aS'forget'
p745
aS'follow'
p746
aS'verb'
p747
aS'tec'
p748
aS'past'
p749
aS'tes'
p750
aS'stood'
p751
aS'sun'
p752
aS'strong'
p753
aS'gosh'
p754
aS'knows'
p755
aS'none'
p756
aS'learn'
p757
aS'beautiful'
p758
aS'brown'
p759
aS'gyeah'
p760
aS'soon'
p761
aS'limelight'
p762
aS'foot'
p763
aS'found'
p764
aS'everyone'
p765
aS"they'll"
p766
aS'motherfucker'
p767
aS'quick'
p768
aS'teach'
p769
aS"'round"
p770
aS'number'
p771
aS'holup'
p772
aS'doomsday'
p773
aS'grace'
p774
aS'dans'
p775
aS'nothing'
p776
aS'ugh'
p777
aS'trees'
p778
aS'insane'
p779
aS'bars'
p780
aS'water'
p781
aS"wouldn't"
p782
aS'ps'
p783
aS'devil'
p784
aS'kunta'
p785
aS'champion'
p786
aS'guide'
p787
aS"hopin'"
p788
aS'autres'
p789
aS'bit'
p790
aS'projects'
p791
aS'goddamn'
p792
aS'mirror'
p793
aS'shine'
p794
aS'clack'
p795
aS'faded'
p796
aS'club'
p797
aS'ago'
p798
aS"hustlin'"
p799
aS'gossip'
p800
aS"mornin'"
p801
aS'rhyme'
p802
aS"you's"
p803
aS'makes'
p804
aS'win'
p805
aS'stroke'
p806
aS'll'
p807
aS'spell'
p808
aS'hate'
p809
aS'shut'
p810
aS'molly'
p811
aS'blown'
p812
aS'steel'
p813
aS'loved'
p814
aS'lamborghini'
p815
aS'loves'
p816
aS'microphone'
p817
aS"moanin'"
p818
aS'bring'
p819
aS'jar'
p820
aS'tape'
p821
aS'watching'
p822
aS'words'
p823
aS'ghetto'
p824
aS'married'
p825
aS'preach'
p826
aS"takin'"
p827
aS'deliver'
p828
aS'cake'
p829
aS'laugh'
p830
aS'cousin'
p831
aS'quit'
p832
aS'bullets'
p833
aS'treat'
p834
aS'waste'
p835
aS'beast'
p836
aS'spitting'
p837
aS'moments'
p838
aS'press'
p839
aS'soft'
p840
aS'heel'
p841
aS'alive'
p842
aS'hair'
p843
aS'tomb'
p844
aS'owe'
p845
aS'van'
p846
aS'bagged'
p847
aS'whether'
p848
aS'flip'
p849
aS'problem'
p850
aS'beats'
p851
aS'star'
p852
aS'ghost'
p853
aS'worth'
p854
aS'jack'
p855
aS'clothes'
p856
aS'leaders'
p857
aS'lights'
p858
aS'above'
p859
aS'men'
p860
aS'kids'
p861
aS'crap'
p862
aS'arms'
p863
aS'type'
p864
aS'holy'
p865
aS'hurt'
p866
aS'phone'
p867
aS'backwards'
p868
aS'hole'
p869
aS'locked'
p870
aS'roof'
p871
aS'ms'
p872
aS'fresher'
p873
aS'bunk'
p874
aS'damage'
p875
aS'answer'
p876
aS'lab'
p877
aS'anymore'
p878
aS'third'
p879
aS'motherfuckers'
p880
aS'order'
p881
aS'gunshot'
p882
aS'nets'
p883
aS"fillin'"
p884
aS'bank'
p885
aS'shadows'
p886
aS"mournin'"
p887
aS'taught'
p888
aS'fatty'
p889
aS'goo'
p890
aS're'
p891
aS'pryor'
p892
aS'stripe'
p893
aS'somewhat'
p894
aS'crawl'
p895
aS'coward'
p896
aS'tree'
p897
aS'iron'
p898
aS'bridge'
p899
aS'snow'
p900
aS'doors'
p901
aS'plenty'
p902
aS'glow'
p903
aS'don'
p904
aS'thunder'
p905
aS'scream'
p906
aS'lyrics'
p907
aS'bust'
p908
aS'gangsta'
p909
aS'meditate'
p910
aS'bar'
p911
aS'bag'
p912
aS'ballers'
p913
aS"pickin'"
p914
aS'weak'
p915
aS'news'
p916
aS'cop'
p917
aS'accident'
p918
aS'against'
p919
aS'tony'
p920
aS'petty'
p921
aS'blower'
p922
aS'beer'
p923
aS'fry'
p924
aS'threw'
p925
aS'deeper'
p926
aS'drugs'
p927
aS'catch'
p928
aS'seeds'
p929
aS'seven'
p930
aS'il'
p931
aS'suggest'
p932
aS"everybody's"
p933
aS'belly'
p934
aS'plates'
p935
aS'hanh'
p936
aS'realness'
p937
aS'tyson'
p938
aS'kid'
p939
aS'rome'
p940
aS'corporate'
p941
aS'yours'
p942
aS"she'll"
p943
aS'bugged'
p944
aS'thanks'
p945
aS'human'
p946
aS'yep'
p947
aS'yet'
p948
aS'hai'
p949
aS'family'
p950
aS'ease'
p951
aS'spread'
p952
aS'bands'
p953
aS'judge'
p954
aS'shoulder'
p955
aS'remind'
p956
aS'somehow'
p957
aS'finna'
p958
aS'losing'
p959
aS"something's"
p960
aS'cowboy'
p961
aS'raised'
p962
aS'presence'
p963
aS'ahh'
p964
aS'rounds'
p965
aS"c'est"
p966
aS'stuck'
p967
aS'woulda'
p968
aS'gin'
p969
aS"rhymin'"
p970
aS'rosecrans'
p971
aS'exist'
p972
aS"rollin'"
p973
aS"happenin'"
p974
aS'tit'
p975
aS'reality'
p976
aS'tin'
p977
aS'test'
p978
aS"'s"
p979
aS'diet'
p980
aS'fell'
p981
aS'rolling'
p982
aS'weekend'
p983
aS'rod'
p984
aS'audemars'
p985
aS'skate'
p986
aS'suicide'
p987
aS'father'
p988
aS'string'
p989
aS"nobody's"
p990
aS'blast'
p991
aS'minute'
p992
aS'recall'
p993
aS'dit'
p994
aS'krills'
p995
aS'cetera'
p996
aS'spiritual'
p997
aS'sign'
p998
aS'cost'
p999
aS'eating'
p1000
aS'fear'
p1001
aS'chitty'
p1002
aS'change'
p1003
aS'awhen'
p1004
aS'women'
p1005
aS'weird'
p1006
aS'extra'
p1007
aS'suicides'
p1008
aS'dude'
p1009
aS'memory'
p1010
aS"makin'"
p1011
aS'ooooooo'
p1012
aS'earth'
p1013
aS'believed'
p1014
aS"lovin'"
p1015
aS'figure'
p1016
aS"comin'"
p1017
aS"didn't"
p1018
aS'tinted'
p1019
aS'spa'
p1020
aS'till'
p1021
aS'rose'
p1022
aS'emcees'
p1023
aS'sacrifice'
p1024
aS"j'ai"
p1025
aS'grow'
p1026
aS'whenever'
p1027
aS'avant'
p1028
aS'offend'
p1029
aS'lighter'
p1030
aS"o's"
p1031
aS'fangs'
p1032
aS'kanye'
p1033
aS'tore'
p1034
aS'thang'
p1035
aS'troubles'
p1036
aS'yams'
p1037
aS'main'
p1038
aS'happened'
p1039
aS'nation'
p1040
aS'half'
p1041
aS'quarter'
p1042
aS'fired'
p1043
aS'pills'
p1044
aS'profit'
p1045
aS'flesh'
p1046
aS'mess'
p1047
aS'besides'
p1048
aS'grandma'
p1049
aS'poems'
p1050
aS'honest'
p1051
aS'fast'
p1052
aS'george'
p1053
aS'boulevard'
p1054
aS'anyone'
p1055
aS'cognac'
p1056
aS'snatch'
p1057
aS"here's"
p1058
aS'wide'
p1059
aS'troublesome'
p1060
aS'angel'
p1061
aS'any'
p1062
aS'shocked'
p1063
aS'destroy'
p1064
aS"an'"
p1065
aS"sayin'"
p1066
aS'average'
p1067
aS'shooter'
p1068
aS'drive'
p1069
aS'crooked'
p1070
aS'laws'
p1071
aS'cheap'
p1072
aS'pump'
p1073
aS'manman'
p1074
aS'cannot'
p1075
aS'mondo'
p1076
aS'naked'
p1077
aS'seat'
p1078
aS'label'
p1079
aS'outside'
p1080
aS'pot'
p1081
aS'pon'
p1082
aS'polo'
p1083
aS'stretch'
p1084
aS'hardly'
p1085
aS'spirit'
p1086
aS'fiends'
p1087
aS'sleeping'
p1088
aS'middle'
p1089
aS'ivs'
p1090
aS'par'
p1091
aS'sucker'
p1092
aS'driver'
p1093
aS'uhh'
p1094
aS'bottle'
p1095
aS"j'irai"
p1096
aS'wifey'
p1097
aS'seems'
p1098
aS'except'
p1099
aS'struck'
p1100
aS'sandman'
p1101
aS'mob'
p1102
aS'cd'
p1103
aS"thinkin'"
p1104
aS'table'
p1105
aS'memories'
p1106
aS'buddha'
p1107
aS'pockets'
p1108
aS'yeezy'
p1109
aS'ladies'
p1110
aS'bubbly'
p1111
aS'stars'
p1112
aS'amongst'
p1113
aS'soprano'
p1114
aS'ah'
p1115
aS'deep'
p1116
aS'imagination'
p1117
aS"she's"
p1118
aS'alcohol'
p1119
aS'building'
p1120
aS"nigga's"
p1121
aS"sittin'"
p1122
aS'children'
p1123
aS'tv'
p1124
aS'smile'
p1125
aS'te'
p1126
aS'sherane'
p1127
aS'worst'
p1128
aS'list'
p1129
aS'small'
p1130
aS'instagram'
p1131
aS'burger'
p1132
aS'lawyer'
p1133
aS'conscience'
p1134
aS'richard'
p1135
aS'ma'
p1136
aS'loose'
p1137
aS'tracks'
p1138
aS'losses'
p1139
aS'soldier'
p1140
aS'imagine'
p1141
aS'diamond'
p1142
aS'excuse'
p1143
aS'flag'
p1144
aS'glad'
p1145
aS'hour'
p1146
aS'history'
p1147
aS'joints'
p1148
aS'scar'
p1149
aS"actin'"
p1150
aS'advice'
p1151
aS'plane'
p1152
aS'coat'
p1153
aS'shade'
p1154
aS'pleasure'
p1155
aS'bless'
p1156
aS'ashes'
p1157
aS'someone'
p1158
aS'compris'
p1159
aS'blacks'
p1160
aS"devil's"
p1161
aS'bass'
p1162
aS'team'
p1163
aS'reason'
p1164
aS"sleepin'"
p1165
aS'script'
p1166
aS"year's"
p1167
aS'american'
p1168
aS"sellin'"
p1169
aS'dust'
p1170
aS'jet'
p1171
aS'twenty'
p1172
aS'collar'
p1173
aS'paint'
p1174
aS'compromise'
p1175
aS'store'
p1176
aS'ainsi'
p1177
aS'jordan'
p1178
aS'doctors'
p1179
aS'grew'
p1180
aS'fighting'
p1181
aS'ooooookay'
p1182
aS'self'
p1183
aS'relief'
p1184
aS'plan'
p1185
aS'clear'
p1186
aS'waiting'
p1187
aS'hip'
p1188
aS"they'd"
p1189
aS'rest'
p1190
aS'enemy'
p1191
aS'sleeve'
p1192
aS'common'
p1193
aS'engraved'
p1194
aS'rhinestone'
p1195
aS'tender'
p1196
aS'definitely'
p1197
aS'#'
aS'won'
p1198
aS"throwin'"
p1199
aS'death'
p1200
aS'snitches'
p1201
aS'barely'
p1202
aS'annie'
p1203
aS'patty'
p1204
aS'simple'
p1205
aS'hollow'
p1206
aS'church'
p1207
aS'belt'
p1208
aS'curve'
p1209
aS'nicki'
p1210
aS'empty'
p1211
aS'pm'
p1212
aS'fire'
p1213
aS'fur'
p1214
aS'raw'
p1215
aS'grip'
p1216
aS'pound'
p1217
aS"movin'"
p1218
aS'ready'
p1219
aS'daughters'
p1220
aS'fede'
p1221
aS'lawyers'
p1222
aS'snappin'
p1223
aS'dime'
p1224
aS'keys'
p1225
aS'yesterday'
p1226
aS'moving'
p1227
aS'sandals'
p1228
aS'older'
p1229
aS'rules'
p1230
aS'spend'
p1231
aS'prince'
p1232
aS'crying'
p1233
aS'cuh'
p1234
aS'threes'
p1235
aS'knock'
p1236
aS'collect'
p1237
aS'culdesac'
p1238
aS"dodgin'"
p1239
aS"eatin'"
p1240
aS'understood'
p1241
aS"trippin'"
p1242
aS'pen'
p1243
aS"d'avant"
p1244
aS'become'
p1245
aS'anything'
p1246
aS'range'
p1247
aS'grammy'
p1248
aS'terrorists'
p1249
aS'nonsense'
p1250
aS'story'
p1251
aS'doubt'
p1252
aS'heritage'
p1253
aS'pastor'
p1254
aS'line'
p1255
aS'woah'
p1256
aS'un'
p1257
aS'called'
p1258
aS'bell'
p1259
aS'fallait'
p1260
aS'manhattan'
p1261
aS'nice'
p1262
aS'lane'
p1263
aS'bleached'
p1264
aS'dot'
p1265
aS'fresh'
p1266
aS'having'
p1267
aS'code'
p1268
aS"drinkin'"
p1269
aS'queen'
p1270
aS'maad'
p1271
aS'colors'
p1272
aS'radio'
p1273
aS"you'd"
p1274
aS'silly'
p1275
aS'jump'
p1276
aS'booth'
p1277
aS'odd'
p1278
aS'dealer'
p1279
aS'punch'
p1280
aS'sing'
p1281
aS'wig'
p1282
aS'dedicated'
p1283
aS'use'
p1284
aS'chi'
p1285
aS'babe'
p1286
aS'gettin'
p1287
aS'escaped'
p1288
aS"whippin'"
p1289
aS'lock'
p1290
aS'sip'
p1291
aS'six'
p1292
aS"they've"
p1293
aS'sin'
p1294
aS'autograph'
p1295
aS'lame'
p1296
aS'lines'
p1297
aS'allow'
p1298
aS'looking'
p1299
aS'nasty'
p1300
aS'bunch'
p1301
aS'crash'
p1302
aS'guard'
p1303
aS'slide'
p1304
aS'bills'
p1305
aS'lie'
p1306
aS'doing'
p1307
aS'society'
p1308
aS'rep'
p1309
aS'temps'
p1310
aS'release'
p1311
aS"poppin'"
p1312
aS'scary'
p1313
aS'g'
aS'twoman'
p1314
aS'south'
p1315
aS'dutty'
p1316
aS'accent'
p1317
aS'attack'
p1318
aS'negro'
p1319
aS'saches'
p1320
aS'ben'
p1321
aS'bed'
p1322
aS'curves'
p1323
aS'mix'
p1324
aS'jail'
p1325
aS'asshole'
p1326
aS'unless'
p1327
aS'se'
p1328
aS'tear'
p1329
aS'tire'
p1330
aS'handle'
p1331
aS'rapper'
p1332
aS'prayers'
p1333
aS'wears'
p1334
aS'record'
p1335
aS'speed'
p1336
aS'bought'
p1337
aS'joy'
p1338
aS'job'
p1339
aS'figaro'
p1340
aS'hits'
p1341
aS'drum'
p1342
aS'taking'
p1343
aS'admit'
p1344
aS'ci'
p1345
aS'wall'
p1346
aS'yam'
p1347
aS'yan'
p1348
aS'ak'
p1349
aS'foes'
p1350
aS'ognuno'
p1351
aS'present'
p1352
aS"pourin'"
p1353
aS'gucci'
p1354
aS'country'
p1355
aS'thug'
p1356
aS'strange'
p1357
aS'gets'
p1358
aS'romey'
p1359
aS'lobby'
p1360
aS'destruction'
p1361
aS'ont'
p1362
aS'conquer'
p1363
aS'less'
p1364
aS'seats'
p1365
aS'happiness'
p1366
aS'wet'
p1367
aS'fate'
p1368
aS'government'
p1369
aS'royalty'
p1370
aS'five'
p1371
aS'fools'
p1372
aS'ferai'
p1373
aS'scared'
p1374
aS"l'on"
p1375
aS'mines'
p1376
aS'pressure'
p1377
aS'host'
p1378
aS'swear'
p1379
aS'swimming'
p1380
aS'snitch'
p1381
aS'bus'
p1382
aS'squeeze'
p1383
aS'piece'
p1384
aS'minutes'
p1385
aS'chercher'
p1386
aS'flammes'
p1387
aS'unmarked'
p1388
aS'book'
p1389
aS'witness'
p1390
aS"e'rything"
p1391
aS'kinda'
p1392
aS'rule'
p1393
aS'smokin'
p1394
aS'suicidal'
p1395
aS'pardon'
p1396
aS"sobbin'"
p1397
aS'both'
p1398
aS'yellow'
p1399
aS'notres'
p1400
aS'appetite'
p1401
aS'oldest'
p1402
aS'trolley'
p1403
aS'whose'
p1404
aS'feeding'
p1405
aS"bakin'"
p1406
aS'buttonup'
p1407
aS'tweet'
p1408
aS'scold'
p1409
aS'comeup'
p1410
aS'fleurs'
p1411
aS'grenadiers'
p1412
aS'pigment'
p1413
aS'smack'
p1414
aS"hatin'"
p1415
aS'conception'
p1416
aS'screaming'
p1417
aS'intresse'
p1418
aS'skills'
p1419
aS"l'emportes"
p1420
aS'relentlessly'
p1421
aS'freaknik'
p1422
aS'employees'
p1423
aS'glued'
p1424
aS'heading'
p1425
aS'victory'
p1426
aS'egyszer'
p1427
aS'corvette'
p1428
aS'tolerate'
p1429
aS'changerai'
p1430
aS'nail'
p1431
aS'preaches'
p1432
aS'scraped'
p1433
aS'lavers'
p1434
aS'shining'
p1435
aS'nel'
p1436
aS'wreck'
p1437
aS'veux'
p1438
aS'clocked'
p1439
aS'boogie'
p1440
aS'weren'
p1441
aS'twodoor'
p1442
aS'cars'
p1443
aS'med'
p1444
aS'monkeymouth'
p1445
aS"d'autresvenez"
p1446
aS"york's"
p1447
aS'chang'
p1448
aS'china'
p1449
aS'nanny'
p1450
aS'mer'
p1451
aS'regretter'
p1452
aS'digits'
p1453
aS'luther'
p1454
aS'glo'
p1455
aS'bloomed'
p1456
aS'changed'
p1457
aS'bro'
p1458
aS'vintages'
p1459
aS'analysts'
p1460
aS'dro'
p1461
aS'thangthang'
p1462
aS'changes'
p1463
aS'vacations'
p1464
aS"abusin'"
p1465
aS'golden'
p1466
aS'hunch'
p1467
aS'campaign'
p1468
aS'patience'
p1469
aS'gots'
p1470
aS'thekeys'
p1471
aS'counts'
p1472
aS'plot'
p1473
aS'alligator'
p1474
aS'sweater'
p1475
aS'cannibal'
p1476
aS'cali'
p1477
aS'asses'
p1478
aS'calm'
p1479
aS'survive'
p1480
aS'sexy'
p1481
aS'deserve'
p1482
aS'coffins'
p1483
aS'relax'
p1484
aS'phony'
p1485
aS'grief'
p1486
aS'excellent'
p1487
aS'rick'
p1488
aS'mc'
p1489
aS'shame'
p1490
aS'warn'
p1491
aS'vow'
p1492
aS'era'
p1493
aS'example'
p1494
aS'shook'
p1495
aS'vodka'
p1496
aS'bitchass'
p1497
aS'household'
p1498
aS'pirus'
p1499
aS'paparazzi'
p1500
aS'bonafide'
p1501
aS'attract'
p1502
aS'looser'
p1503
aS"mobbin'"
p1504
aS'provide'
p1505
aS'drying'
p1506
aS'colds'
p1507
aS'bagages'
p1508
aS'hov'
p1509
aS'rookie'
p1510
aS'scholars'
p1511
aS'stoppa'
p1512
aS'beach'
p1513
aS"doesn't"
p1514
aS'pizza'
p1515
aS'cyberspace'
p1516
aS'cosign'
p1517
aS'numberup'
p1518
aS"wan'"
p1519
aS'xrated'
p1520
aS'insecure'
p1521
aS"frontin'"
p1522
aS'gravy'
p1523
aS'purchase'
p1524
aS"complainin'"
p1525
aS"amazin'"
p1526
aS'sons'
p1527
aS'green'
p1528
aS'anita'
p1529
aS'plumbing'
p1530
aS'fan'
p1531
aS'thirty'
p1532
aS'origin'
p1533
aS'toaster'
p1534
aS'office'
p1535
aS"jerkin'"
p1536
aS'satisfied'
p1537
aS'bubbles'
p1538
aS'mayor'
p1539
aS'malibooyah'
p1540
aS'fit'
p1541
aS'backpack'
p1542
aS'stevens'
p1543
aS'writing'
p1544
aS'fade'
p1545
aS'whips'
p1546
aS'hidden'
p1547
aS'overcome'
p1548
aS'sheriff'
p1549
aS'marabouts'
p1550
aS"ho's"
p1551
aS'reaches'
p1552
aS'silver'
p1553
aS'courtside'
p1554
aS'mint'
p1555
aS'rocks'
p1556
aS'luce'
p1557
aS'heures'
p1558
aS'reasonable'
p1559
aS'salvera'
p1560
aS'bong'
p1561
aS'meal'
p1562
aS'bone'
p1563
aS'lifted'
p1564
aS'snakes'
p1565
aS'innocent'
p1566
aS'autre'
p1567
aS'milan'
p1568
aS'trading'
p1569
aS'stealing'
p1570
aS'flock'
p1571
aS'saturday'
p1572
aS'unholy'
p1573
aS'motel'
p1574
aS'cameras'
p1575
aS'washed'
p1576
aS'tomorrow'
p1577
aS'laid'
p1578
aS'remorse'
p1579
aS'adapt'
p1580
aS'waaaaay'
p1581
aS'illest'
p1582
aS'hooker'
p1583
aS'sliding'
p1584
aS'grease'
p1585
aS'slang'
p1586
aS'smacking'
p1587
aS'chanson'
p1588
aS'formules'
p1589
aS'enlightened'
p1590
aS'kit'
p1591
aS'frew'
p1592
aS'ate'
p1593
aS'recovering'
p1594
aS'ati'
p1595
aS'hopeless'
p1596
aS"today's"
p1597
aS'soda'
p1598
aS'perforated'
p1599
aS'arrived'
p1600
aS'condom'
p1601
aS'loud'
p1602
aS'bite'
p1603
aS'flick'
p1604
aS"ceilin'"
p1605
aS'already'
p1606
aS'speeding'
p1607
aS'pots'
p1608
aS'hook'
p1609
aS'spinning'
p1610
aS'floors'
p1611
aS'tel'
p1612
aS'thick'
p1613
aS'brock'
p1614
aS'basketball'
p1615
aS'service'
p1616
aS'misusing'
p1617
aS'fled'
p1618
aS'girls'
p1619
aS'vagina'
p1620
aS'fiction'
p1621
aS'tom'
p1622
aS"billdroppin'"
p1623
aS"dt's"
p1624
aS"tippin'"
p1625
aS'dogs'
p1626
aS'ceiling'
p1627
aS"grad'"
p1628
aS'icecold'
p1629
aS'nirvana'
p1630
aS'alondra'
p1631
aS'wasted'
p1632
aS'upinyoface'
p1633
aS'anxiety'
p1634
aS'rampage'
p1635
aS'rhymers'
p1636
aS'rusty'
p1637
aS'merci'
p1638
aS'flame'
p1639
aS'endure'
p1640
aS'hottie'
p1641
aS"'posed"
p1642
aS'k'
aS'powers'
p1643
aS'mink'
p1644
aS'brillo'
p1645
aS'ran'
p1646
aS'deprived'
p1647
aS'seem'
p1648
aS'obviously'
p1649
aS'seek'
p1650
aS'tells'
p1651
aS'gear'
p1652
aS'sharecroppers'
p1653
aS'paramedics'
p1654
aS'uncouth'
p1655
aS'snot'
p1656
aS"'n"
p1657
aS'niece'
p1658
aS'season'
p1659
aS'panties'
p1660
aS'rides'
p1661
aS"girl's"
p1662
aS'isleys'
p1663
aS'bruce'
p1664
aS'monk'
p1665
aS'shakedown'
p1666
aS'addict'
p1667
aS'phase'
p1668
aS'drought'
p1669
aS'explosives'
p1670
aS'moolah'
p1671
aS'incomplete'
p1672
aS'dog'
p1673
aS"ballin'"
p1674
aS'treaty'
p1675
aS'hoochies'
p1676
aS'swamp'
p1677
aS'scotch'
p1678
aS"wearin'"
p1679
aS'coeur'
p1680
aS'random'
p1681
aS'cackalack'
p1682
aS'fucks'
p1683
aS'pops'
p1684
aS'attempts'
p1685
aS"compton's"
p1686
aS'gauge'
p1687
aS"weddin'"
p1688
aS'nephew'
p1689
aS'bail'
p1690
aS'sharks'
p1691
aS'toucher'
p1692
aS"spillin'"
p1693
aS'liberated'
p1694
aS"dippin'"
p1695
aS"contemplatin'"
p1696
aS'mens'
p1697
aS'unleashed'
p1698
aS"rippin'"
p1699
aS'folks'
p1700
aS'scripture'
p1701
aS'sense'
p1702
aS"game's"
p1703
aS'godzilla'
p1704
aS'derriere'
p1705
aS'hostility'
p1706
aS'plato'
p1707
aS'dc'
p1708
aS'geek'
p1709
aS'watermelon'
p1710
aS'barbies'
p1711
aS'report'
p1712
aS'intorno'
p1713
aS'du'
p1714
aS'thatto'
p1715
aS'earl'
p1716
aS'spilling'
p1717
aS'bae'
p1718
aS'gears'
p1719
aS'ban'
p1720
aS'steak'
p1721
aS'steal'
p1722
aS'ghoul'
p1723
aS'ears'
p1724
aS'blew'
p1725
aS'conans'
p1726
aS'resist'
p1727
aS"d's"
p1728
aS'kicked'
p1729
aS'fail'
p1730
aS'truancy'
p1731
aS'hammer'
p1732
aS"c'mon"
p1733
aS'onto'
p1734
aS'skrrt'
p1735
aS"blingin'"
p1736
aS'bien'
p1737
aS'sais'
p1738
aS"paula's"
p1739
aS'herb'
p1740
aS'sorts'
p1741
aS'approach'
p1742
aS'lazy'
p1743
aS'buygold'
p1744
aS'rolled'
p1745
aS'felony'
p1746
aS'however'
p1747
aS"n'em"
p1748
aS'nightmares'
p1749
aS'mammyfucker'
p1750
aS'roller'
p1751
aS'climate'
p1752
aS"surroundin'"
p1753
aS'fault'
p1754
aS'ill'
p1755
aS'una'
p1756
aS'games'
p1757
aS'brad'
p1758
aS'studio'
p1759
aS'jello'
p1760
aS'con'
p1761
aS'legs'
p1762
aS'vain'
p1763
aS'jamaicans'
p1764
aS'flames'
p1765
aS'bugaboo'
p1766
aS'jayz'
p1767
aS'master'
p1768
aS'loaded'
p1769
aS"thehe's"
p1770
aS'gratitude'
p1771
aS'stomped'
p1772
aS'bathroom'
p1773
aS'basis'
p1774
aS'chrome'
p1775
aS'oooooo'
p1776
aS'basic'
p1777
aS'cuckoo'
p1778
aS'eastern'
p1779
aS'abomination'
p1780
aS'nella'
p1781
aS'residue'
p1782
aS'hennessy'
p1783
aS'coherent'
p1784
aS'sissypissy'
p1785
aS'villainy'
p1786
aS'haters'
p1787
aS"'less"
p1788
aS'gnu'
p1789
aS'tang'
p1790
aS'perpetratoryeah'
p1791
aS'mfthe'
p1792
aS'tastes'
p1793
aS'aim'
p1794
aS'near'
p1795
aS'neat'
p1796
aS'study'
p1797
aS'mistake'
p1798
aS'provocative'
p1799
aS'vendanges'
p1800
aS'played'
p1801
aS'fakes'
p1802
aS'ii'
p1803
aS'player'
p1804
aS"girls'"
p1805
aS'colosseum'
p1806
aS'stella'
p1807
aS'perform'
p1808
aS'patient'
p1809
aS'babies'
p1810
aS'vegetable'
p1811
aS'several'
p1812
aS'grows'
p1813
aS'meets'
p1814
aS'chauvinistic'
p1815
aS'screw'
p1816
aS'ceilings'
p1817
aS'hang'
p1818
aS'bastard'
p1819
aS"skippin'"
p1820
aS'deviendrai'
p1821
aS'aka'
p1822
aS'thoughts'
p1823
aS'butter'
p1824
aS"heat'll"
p1825
aS'kept'
p1826
aS'mammy'
p1827
aS'suffering'
p1828
aS'greatest'
p1829
aS'mother'
p1830
aS"milli'"
p1831
aS'flops'
p1832
aS'seasonal'
p1833
aS'endless'
p1834
aS'outfit'
p1835
aS'departed'
p1836
aS'sentence'
p1837
aS"thanksgivin'"
p1838
aS'verses'
p1839
aS"outside's"
p1840
aS'swears'
p1841
aS'fairer'
p1842
aS'isthis'
p1843
aS'fires'
p1844
aS'corniche'
p1845
aS'swolla'
p1846
aS"ma'am"
p1847
aS'rumor'
p1848
aS'jeromey'
p1849
aS'prison'
p1850
aS'pitiful'
p1851
aS'hat'
p1852
aS'desire'
p1853
aS'melting'
p1854
aS'breaks'
p1855
aS'romancer'
p1856
aS'caps'
p1857
aS'arab'
p1858
aS'bastards'
p1859
aS"pillpoppin'"
p1860
aS'apart'
p1861
aS'sliced'
p1862
aS'bobby'
p1863
aS'nude'
p1864
aS'froids'
p1865
aS'steps'
p1866
aS'amor'
p1867
aS'security'
p1868
aS'cosby'
p1869
aS'glitters'
p1870
aS'scurl'
p1871
aS'preorders'
p1872
aS'tandem'
p1873
aS'sends'
p1874
aS'ooooo'
p1875
aS'deaf'
p1876
aS'donald'
p1877
aS'usher'
p1878
aS'nodoz'
p1879
aS'headspin'
p1880
aS'bore'
p1881
aS'enemies'
p1882
aS'ici'
p1883
aS'humor'
p1884
aS'lockdown'
p1885
aS'opposite'
p1886
aS'fox'
p1887
aS'poupon'
p1888
aS'ice'
p1889
aS"'fore"
p1890
aS'foe'
p1891
aS'jalopy'
p1892
aS'serpents'
p1893
aS'offices'
p1894
aS'monogamy'
p1895
aS'price'
p1896
aS'dia'
p1897
aS'beers'
p1898
aS'bold'
p1899
aS'corn'
p1900
aS'blooper'
p1901
aS'waistside'
p1902
aS'raisonnable'
p1903
aS'stereo'
p1904
aS'apeshit'
p1905
aS'peep'
p1906
aS"c'tait"
p1907
aS'wept'
p1908
aS'flossed'
p1909
aS'yelling'
p1910
aS"flow's"
p1911
aS'retiennes'
p1912
aS'typeface'
p1913
aS'shield'
p1914
aS'emcee'
p1915
aS'nerve'
p1916
aS'aha'
p1917
aS'froze'
p1918
aS'pays'
p1919
aS'build'
p1920
aS'fers'
p1921
aS'capped'
p1922
aS'sow'
p1923
aS'wrap'
p1924
aS'frightened'
p1925
aS'yola'
p1926
aS'deception'
p1927
aS'bootlegging'
p1928
aS'transform'
p1929
aS"loiterin'"
p1930
aS'joseph'
p1931
aS"fakin'"
p1932
aS'wap'
p1933
aS'rih'
p1934
aS"reapin'"
p1935
aS'fireworks'
p1936
aS'sickest'
p1937
aS'elaludt'
p1938
aS'failure'
p1939
aS'elfradt'
p1940
aS"dome'd"
p1941
aS'atrocities'
p1942
aS'mtv'
p1943
aS'jouer'
p1944
aS"crew'll"
p1945
aS'violenza'
p1946
aS'separated'
p1947
aS'promises'
p1948
aS'sarcophagus'
p1949
aS'hotter'
p1950
aS'sticks'
p1951
aS'scandalous'
p1952
aS'toss'
p1953
aS'escape'
p1954
aS'thanksgiving'
p1955
aS'thunk'
p1956
aS'promised'
p1957
aS"mc's"
p1958
aS'commencer'
p1959
aS'mold'
p1960
aS'flap'
p1961
aS'holla'
p1962
aS'ne'
p1963
aS'unsensitive'
p1964
aS"strippin'"
p1965
aS'holding'
p1966
aS'smell'
p1967
aS'picture'
p1968
aS'twentyfive'
p1969
aS'toad'
p1970
aS'eiffel'
p1971
aS'class'
p1972
aS'diem'
p1973
aS'cooper'
p1974
aS'died'
p1975
aS'loony'
p1976
aS'longer'
p1977
aS"dyin'"
p1978
aS'glass'
p1979
aS'pessimists'
p1980
aS'cosigned'
p1981
aS'daily'
p1982
aS'jacket'
p1983
aS'warm'
p1984
aS'fjt'
p1985
aS'stacks'
p1986
aS'concept'
p1987
aS'vampires'
p1988
aS'skip'
p1989
aS'focus'
p1990
aS'mild'
p1991
aS'grateful'
p1992
aS'rot'
p1993
aS'milk'
p1994
aS'baller'
p1995
aS'flask'
p1996
aS'prom'
p1997
aS'thighs'
p1998
aS'ultralight'
p1999
aS'amaze'
p2000
aS'kznk'
p2001
aS'rhythm'
p2002
aS'marks'
p2003
aS"skirtin'"
p2004
aS'preapprove'
p2005
aS'blimey'
p2006
aS"mama's"
p2007
aS'sloppy'
p2008
aS"mil'"
p2009
aS'vegas'
p2010
aS'osection'
p2011
aS'dim'
p2012
aS'beating'
p2013
aS'worf'
p2014
aS'banished'
p2015
aS'christmas'
p2016
aS'p'
aS'excellence'
p2017
aS'guy'
p2018
aS'dip'
p2019
aS'brave'
p2020
aS'headshot'
p2021
aS'desir'
p2022
aS"l'explication"
p2023
aS'utter'
p2024
aS'coppers'
p2025
aS'curse'
p2026
aS'stands'
p2027
aS'barbie'
p2028
aS'rum'
p2029
aS"pullin'"
p2030
aS'remain'
p2031
aS'fillet'
p2032
aS'rub'
p2033
aS"s'attache"
p2034
aS'freaks'
p2035
aS'bm'
p2036
aS"freakin'"
p2037
aS'freaky'
p2038
aS'orangutans'
p2039
aS'fest'
p2040
aS'tykes'
p2041
aS'french'
p2042
aS'leaveaprettygirlsad'
p2043
aS'liquors'
p2044
aS'contemplate'
p2045
aS'nemesis'
p2046
aS'brillante'
p2047
aS'boogaloo'
p2048
aS'sogniamo'
p2049
aS'suckers'
p2050
aS'along'
p2051
aS'teaches'
p2052
aS'coochie'
p2053
aS'redemption'
p2054
aS'boast'
p2055
aS'brilliant'
p2056
aS'jungles'
p2057
aS'bow'
p2058
aS'trial'
p2059
aS'cinnamon'
p2060
aS'usually'
p2061
aS'bruised'
p2062
aS'satan'
p2063
aS'footlocker'
p2064
aS'bloods'
p2065
aS'madman'
p2066
aS'swallower'
p2067
aS'sincerely'
p2068
aS'raking'
p2069
aS'post'
p2070
aS'wang'
p2071
aS'retarded'
p2072
aS'estate'
p2073
aS'working'
p2074
aS'prove'
p2075
aS'aye'
p2076
aS'tripping'
p2077
aS'wondering'
p2078
aS'cuter'
p2079
aS'checkout'
p2080
aS'encryption'
p2081
aS'loving'
p2082
aS'sharing'
p2083
aS'travesty'
p2084
aS'getrich'
p2085
aS'afford'
p2086
aS'cluck'
p2087
aS'claus'
p2088
aS"'stead"
p2089
aS'shinola'
p2090
aS"skeezer's"
p2091
aS"power's"
p2092
aS'riders'
p2093
aS'boucher'
p2094
aS'donnent'
p2095
aS'brakes'
p2096
aS'cab'
p2097
aS'arrive'
p2098
aS'laughter'
p2099
aS'sunrays'
p2100
aS'agent'
p2101
aS'greenest'
p2102
aS'millionaires'
p2103
aS'abort'
p2104
aS'posing'
p2105
aS'anteater'
p2106
aS'walkingroundalwaysmad'
p2107
aS"achilles'"
p2108
aS'pink'
p2109
aS"foamin'"
p2110
aS'sidney'
p2111
aS'bourgie'
p2112
aS'sunday'
p2113
aS'vital'
p2114
aS'pure'
p2115
aS'swore'
p2116
aS'speaks'
p2117
aS'sworn'
p2118
aS'dope'
p2119
aS'staying'
p2120
aS'may'
p2121
aS'lilsit'
p2122
aS'fueled'
p2123
aS'date'
p2124
aS'suck'
p2125
aS"countin'"
p2126
aS'guys'
p2127
aS'stress'
p2128
aS'goal'
p2129
aS'knowbig'
p2130
aS'truce'
p2131
aS'duke'
p2132
aS'forfeit'
p2133
aS'rhyming'
p2134
aS'mnage'
p2135
aS'police'
p2136
aS'thank'
p2137
aS'cheerleaders'
p2138
aS"he'd"
p2139
aS'attraction'
p2140
aS'decades'
p2141
aS'mommy'
p2142
aS'longass'
p2143
aS'busy'
p2144
aS'closure'
p2145
aS'aching'
p2146
aS'moms'
p2147
aS'rake'
p2148
aS'lunch'
p2149
aS'tails'
p2150
aS'evian'
p2151
aS'shhh'
p2152
aS'nos'
p2153
aS'thankful'
p2154
aS'james'
p2155
aS'beings'
p2156
aS'peasant'
p2157
aS'veins'
p2158
aS'motherland'
p2159
aS'brews'
p2160
aS'en'
p2161
aS'kane'
p2162
aS'goose'
p2163
aS'whiplash'
p2164
aS'fever'
p2165
aS'ex'
p2166
aS'year'
p2167
aS'morning'
p2168
aS'exaggeration'
p2169
aS'fu'
p2170
aS'album'
p2171
aS"america's"
p2172
aS'jackson'
p2173
aS'underst'
p2174
aS'interference'
p2175
aS'boundless'
p2176
aS'investigation'
p2177
aS'rational'
p2178
aS'brazilian'
p2179
aS'squares'
p2180
aS'correct'
p2181
aS'dentadent'
p2182
aS'eterna'
p2183
aS'doublebreasted'
p2184
aS"problem's"
p2185
aS'hulk'
p2186
aS"stressin'"
p2187
aS'disrespect'
p2188
aS'mercedes'
p2189
aS"owin'"
p2190
aS'unwanted'
p2191
aS'cough'
p2192
aS'disguised'
p2193
aS'yup'
p2194
aS'modest'
p2195
aS'turd'
p2196
aS'mello'
p2197
aS'cheese'
p2198
aS'intuition'
p2199
aS'halle'
p2200
aS'revenue'
p2201
aS'yeti'
p2202
aS'question'
p2203
aS"baker's"
p2204
aS'waves'
p2205
aS'crib'
p2206
aS'williams'
p2207
aS'americans'
p2208
aS'fi'
p2209
aS'nuttin'
p2210
aS'zap'
p2211
aS'millions'
p2212
aS'rented'
p2213
aS'checked'
p2214
aS'wrath'
p2215
aS'capitalize'
p2216
aS'yin'
p2217
aS'dressed'
p2218
aS'plastic'
p2219
aS'tragic'
p2220
aS'persecute'
p2221
aS'convention'
p2222
aS'royce'
p2223
aS'speaking'
p2224
aS'textes'
p2225
aS'meme'
p2226
aS'hug'
p2227
aS'luggage'
p2228
aS'adjourned'
p2229
aS'allegedly'
p2230
aS'revue'
p2231
aS"vandalizin'"
p2232
aS'grands'
p2233
aS'quad'
p2234
aS'copy'
p2235
aS'holder'
p2236
aS'favors'
p2237
aS'congas'
p2238
aS'#madrichalert'
p2239
aS'future'
p2240
aS'opens'
p2241
aS'warriors'
p2242
aS'outcome'
p2243
aS'powder'
p2244
aS'slay'
p2245
aS'marijuana'
p2246
aS'slap'
p2247
aS'louanges'
p2248
aS"mixin'"
p2249
aS'breakfast'
p2250
aS'extrovert'
p2251
aS'advil'
p2252
aS'zoo'
p2253
aS'jefferson'
p2254
aS'concern'
p2255
aS'blunt'
p2256
aS'jungle'
p2257
aS'nerves'
p2258
aS'begin'
p2259
aS"j'les"
p2260
aS'roster'
p2261
aS'arguing'
p2262
aS'cheesecake'
p2263
aS'paged'
p2264
aS'pharaoh'
p2265
aS'sheets'
p2266
aS"lurkin'"
p2267
aS'spillinace'
p2268
aS'boys'
p2269
aS'tooth'
p2270
aS'stockings'
p2271
aS'uncle'
p2272
aS'salt'
p2273
aS'perpetrated'
p2274
aS'walking'
p2275
aS'bullis'
p2276
aS'salon'
p2277
aS'fifty'
p2278
aS'bright'
p2279
aS'spaces'
p2280
aS'shoe'
p2281
aS'teamed'
p2282
aS'mexican'
p2283
aS'mister'
p2284
aS'curled'
p2285
aS'vmonos'
p2286
aS'wood'
p2287
aS'weighs'
p2288
aS'nouvelle'
p2289
aS'tock'
p2290
aS'granddaddy'
p2291
aS'contracts'
p2292
aS'stomp'
p2293
aS'diamonds'
p2294
aS'clang'
p2295
aS'grave'
p2296
aS'kiki'
p2297
aS'hooper'
p2298
aS'nappyheaded'
p2299
aS'applause'
p2300
aS'nouveau'
p2301
aS'pimp'
p2302
aS'leather'
p2303
aS'worried'
p2304
aS'concert'
p2305
aS"church's"
p2306
aS'yeahyeah'
p2307
aS'ways'
p2308
aS'onetrackminded'
p2309
aS'masseur'
p2310
aS'teens'
p2311
aS'across'
p2312
aS'forsake'
p2313
aS'arrival'
p2314
aS'notice'
p2315
aS'jobs'
p2316
aS'impregnated'
p2317
aS'parental'
p2318
aS'dartboard'
p2319
aS'killing'
p2320
aS'shotty'
p2321
aS'spare'
p2322
aS'spark'
p2323
aS'ale'
p2324
aS'yeshua'
p2325
aS'horrifying'
p2326
aS'superstar'
p2327
aS'priests'
p2328
aS'according'
p2329
aS'pronto'
p2330
aS'tous'
p2331
aS'tout'
p2332
aS'berry'
p2333
aS'nils'
p2334
aS'wheels'
p2335
aS'mano'
p2336
aS'pakistan'
p2337
aS'destro'
p2338
aS'refaeli'
p2339
aS'constant'
p2340
aS'skeletons'
p2341
aS'tornado'
p2342
aS'jetterai'
p2343
aS'lifer'
p2344
aS'cares'
p2345
aS'vacation'
p2346
aS'coupe'
p2347
aS'jerks'
p2348
aS'stanzas'
p2349
aS'hubbies'
p2350
aS'borders'
p2351
aS'staring'
p2352
aS'bullshit'
p2353
aS'engine'
p2354
aS'formed'
p2355
aS'tantrum'
p2356
aS'snitching'
p2357
aS'halal'
p2358
aS'instant'
p2359
aS'irrelevant'
p2360
aS'sauce'
p2361
aS'mount'
p2362
aS'trick'
p2363
aS'career'
p2364
aS'ongoing'
p2365
aS"jerome's"
p2366
aS'pimping'
p2367
aS'expertise'
p2368
aS'margin'
p2369
aS'vest'
p2370
aS'shepard'
p2371
aS'rubbing'
p2372
aS'purse'
p2373
aS'bros'
p2374
aS'bias'
p2375
aS'drug'
p2376
aS'return'
p2377
aS'everyday'
p2378
aS'pap'
p2379
aS'helmet'
p2380
aS'granted'
p2381
aS'gentlemen'
p2382
aS'speech'
p2383
aS'lovers'
p2384
aS"babysittin'"
p2385
aS'pam'
p2386
aS'wimbledon'
p2387
aS'week'
p2388
aS"trump's"
p2389
aS'finish'
p2390
aS'ness'
p2391
aS'fruit'
p2392
aS'thrown'
p2393
aS"'do"
p2394
aS'villa'
p2395
aS'veal'
p2396
aS'model'
p2397
aS'cca'
p2398
aS'charged'
p2399
aS'realest'
p2400
aS'among'
p2401
aS'adjusted'
p2402
aS"admittin'"
p2403
aS'risking'
p2404
aS'idols'
p2405
aS'violent'
p2406
aS'captured'
p2407
aS'gwan'
p2408
aS'alimony'
p2409
aS'rover'
p2410
aS'sixteen'
p2411
aS'dipped'
p2412
aS'sheldon'
p2413
aS'thinking'
p2414
aS"we've"
p2415
aS'snapphotos'
p2416
aS'samples'
p2417
aS'overthrow'
p2418
aS'stewed'
p2419
aS'ame'
p2420
aS'moi'
p2421
aS'traffic'
p2422
aS'darn'
p2423
aS'sasquatch'
p2424
aS'lady'
p2425
aS'vague'
p2426
aS'stuns'
p2427
aS'zld'
p2428
aS'hustling'
p2429
aS'twin'
p2430
aS'miracle'
p2431
aS'lightning'
p2432
aS'gimme'
p2433
aS'gras'
p2434
aS'bleach'
p2435
aS'served'
p2436
aS'giuseppe'
p2437
aS'hooptie'
p2438
aS'clap'
p2439
aS'doll'
p2440
aS"some'n"
p2441
aS'cabs'
p2442
aS'reasons'
p2443
aS'brothers'
p2444
aS'viral'
p2445
aS'slice'
p2446
aS'mothafucker'
p2447
aS'pad'
p2448
aS'overly'
p2449
aS'models'
p2450
aS'bleeding'
p2451
aS'spraycan'
p2452
aS'knife'
p2453
aS'hustle'
p2454
aS'turkey'
p2455
aS'skeet'
p2456
aS"villain'll"
p2457
aS'kelis'
p2458
aS'tonka'
p2459
aS'akon'
p2460
aS'nanana'
p2461
aS'/days'
p2462
aS'exciting'
p2463
aS'beaches'
p2464
aS'brighton'
p2465
aS'tease'
p2466
aS'sri'
p2467
aS'gums'
p2468
aS'ou'
p2469
aS'luck'
p2470
aS'road'
p2471
aS'lightskinned'
p2472
aS'bitty'
p2473
aS'curses'
p2474
aS'communication'
p2475
aS'fathers'
p2476
aS'blessed'
p2477
aS'flavors'
p2478
aS'cursed'
p2479
aS'accounts'
p2480
aS'monkeystyle'
p2481
aS'shock'
p2482
aS'parties'
p2483
aS'elementary'
p2484
aS'scrrr'
p2485
aS"'tarded"
p2486
aS"crippin'"
p2487
aS"grand's"
p2488
aS"peekin'"
p2489
aS'drugdealing'
p2490
aS'droptop'
p2491
aS'fish'
p2492
aS'immaculate'
p2493
aS'yah'
p2494
aS'mics'
p2495
aS'trying'
p2496
aS'informer'
p2497
aS'yayo'
p2498
aS'mothafucka'
p2499
aS'tellie'
p2500
aS"wylin'"
p2501
aS'fabricate'
p2502
aS'pacman'
p2503
aS'cooker'
p2504
aS'avec'
p2505
aS'wellskilled'
p2506
aS"brother's"
p2507
aS'ragu'
p2508
aS'grass'
p2509
aS'nogood'
p2510
aS'distance'
p2511
aS'ac'
p2512
aS'leaked'
p2513
aS"ak's"
p2514
aS'forgot'
p2515
aS'sales'
p2516
aS"wavin'"
p2517
aS'ar'
p2518
aS'planets'
p2519
aS'girlfriend'
p2520
aS'lifetime'
p2521
aS'pedestal'
p2522
aS'az'
p2523
aS'poontang'
p2524
aS'casualty'
p2525
aS'fill'
p2526
aS'yoga'
p2527
aS'payday'
p2528
aS'midget'
p2529
aS'prime'
p2530
aS'field'
p2531
aS"po'"
p2532
aS'hella'
p2533
aS'elvis'
p2534
aS'poor'
p2535
aS'beatrhyme'
p2536
aS'desolation'
p2537
aS'accosted'
p2538
aS'peas'
p2539
aS'important'
p2540
aS'spouse'
p2541
aS'lalanne'
p2542
aS'wife'
p2543
aS"braggin'"
p2544
aS'boosters'
p2545
aS"what'sgrand"
p2546
aS'starting'
p2547
aS'trooper'
p2548
aS'axles'
p2549
aS'caused'
p2550
aS'wreath'
p2551
aS'month'
p2552
aS'subtle'
p2553
aS'zappe'
p2554
aS'parmesan'
p2555
aS'allowances'
p2556
aS'apartment'
p2557
aS'niner'
p2558
aS'ruby'
p2559
aS'thursday'
p2560
aS'tail'
p2561
aS'wants'
p2562
aS'th'
p2563
aS'tc'
p2564
aS'woman'
p2565
aS'worse'
p2566
aS'horror'
p2567
aS'gy'
p2568
aS'decide'
p2569
aS'ticket'
p2570
aS'difference'
p2571
aS'ramen'
p2572
aS'leads'
p2573
aS'heaven'
p2574
aS'sans'
p2575
aS'lisp'
p2576
aS'toast'
p2577
aS'stogies'
p2578
aS'plotting'
p2579
aS'pesky'
p2580
aS'sand'
p2581
aS'sane'
p2582
aS'salute'
p2583
aS'goatmouth'
p2584
aS'meds'
p2585
aS'conflicted'
p2586
aS'fashion'
p2587
aS'firefight'
p2588
aS'cookies'
p2589
aS'tribeca'
p2590
aS'rats'
p2591
aS'threeplat'
p2592
aS'ted'
p2593
aS'sync'
p2594
aS'design'
p2595
aS'reine'
p2596
aS'psycho'
p2597
aS'grinning'
p2598
aS'clock'
p2599
aS'suo'
p2600
aS"stretchin'"
p2601
aS'instigated'
p2602
aS'emotions'
p2603
aS'nonviolence'
p2604
aS'crush'
p2605
aS'coroner'
p2606
aS'dukes'
p2607
aS'youuh'
p2608
aS'avenues'
p2609
aS'guns'
p2610
aS'baywatch'
p2611
aS"shmoe's"
p2612
aS'rigged'
p2613
aS'killings'
p2614
aS'trunk'
p2615
aS'praises'
p2616
aS'fantasies'
p2617
aS'stupor'
p2618
aS'colored'
p2619
aS'conviction'
p2620
aS'plaisir'
p2621
aS'inspired'
p2622
aS'evil'
p2623
aS'amount'
p2624
aS'dashing'
p2625
aS'trouverai'
p2626
aS"racin'"
p2627
aS'cup'
p2628
aS'adidas'
p2629
aS'vie'
p2630
aS'suddenly'
p2631
aS'africa'
p2632
aS'marriages'
p2633
aS"d'autres"
p2634
aS'meurice'
p2635
aS'analyzing'
p2636
aS'stickiest'
p2637
aS've'
p2638
aS'proceed'
p2639
aS'faint'
p2640
aS'tacks'
p2641
aS'fragrance'
p2642
aS'gorgeous'
p2643
aS'taken'
p2644
aS'minor'
p2645
aS'chucky'
p2646
aS'dammit'
p2647
aS'telephone'
p2648
aS'toxins'
p2649
aS'tubman'
p2650
aS'science'
p2651
aS'thickest'
p2652
aS'twothousanddollar'
p2653
aS'deh'
p2654
aS'mall'
p2655
aS'dem'
p2656
aS'atari'
p2657
aS'dea'
p2658
aS'popular'
p2659
aS'marble'
p2660
aS'def'
p2661
aS'persists'
p2662
aS'pony'
p2663
aS'share'
p2664
aS"driveby's"
p2665
aS'protects'
p2666
aS'imitation'
p2667
aS'intricate'
p2668
aS"changin'"
p2669
aS'wished'
p2670
aS'airplane'
p2671
aS'clint'
p2672
aS'serenity'
p2673
aS'speedboat'
p2674
aS'breaking'
p2675
aS'nonbeliever'
p2676
aS'gisele'
p2677
aS"playin'"
p2678
aS'trooping'
p2679
aS"stackin'"
p2680
aS'spunk'
p2681
aS'aaaah'
p2682
aS'invasion'
p2683
aS'lanka'
p2684
aS'wason'
p2685
aS'short'
p2686
aS'pangaea'
p2687
aS"'nolia"
p2688
aS'figment'
p2689
aS'author'
p2690
aS'overnight'
p2691
aS'stash'
p2692
aS'dentro'
p2693
aS'ego'
p2694
aS'donner'
p2695
aS'banks'
p2696
aS'photoshop'
p2697
aS'rifles'
p2698
aS'earthworm'
p2699
aS'stains'
p2700
aS'essence'
p2701
aS'flowers'
p2702
aS'held'
p2703
aS'attitude'
p2704
aS'bullpen'
p2705
aS'sugarcoated'
p2706
aS'features'
p2707
aS'messed'
p2708
aS'arteries'
p2709
aS'lipped'
p2710
aS'late'
p2711
aS'pirellis'
p2712
aS'corner'
p2713
aS'followers'
p2714
aS"chippin'"
p2715
aS'cee'
p2716
aS"askin'bout"
p2717
aS'males'
p2718
aS'yg'
p2719
aS'awoke'
p2720
aS'ces'
p2721
aS"you've"
p2722
aS'mystery'
p2723
aS'faire'
p2724
aS'believable'
p2725
aS'nauseous'
p2726
aS'stopped'
p2727
aS'putthekidstobed'
p2728
aS'turns'
p2729
aS'supervillain'
p2730
aS'heavy'
p2731
aS'wrappers'
p2732
aS'generation'
p2733
aS'energy'
p2734
aS'tighten'
p2735
aS'limey'
p2736
aS'turnt'
p2737
aS'fist'
p2738
aS'beyonc'
p2739
aS'flower'
p2740
aS'praise'
p2741
aS'foolproof'
p2742
aS"californicatin'"
p2743
aS'inferior'
p2744
aS'reverend'
p2745
aS'acting'
p2746
aS'hill'
p2747
aS'print'
p2748
aS'desiderio'
p2749
aS'outrun'
p2750
aS'satin'
p2751
aS'dirt'
p2752
aS"m'inventerai"
p2753
aS'mmm'
p2754
aS'base'
p2755
aS'margiela'
p2756
aS'members'
p2757
aS'magiques'
p2758
aS'bask'
p2759
aS'bash'
p2760
aS'bushes'
p2761
aS'bets'
p2762
aS'prophet'
p2763
aS'terrible'
p2764
aS'kung'
p2765
aS'threat'
p2766
aS'automobile'
p2767
aS'heartbeat'
p2768
aS'throws'
p2769
aS'major'
p2770
aS"prayer's"
p2771
aS'relate'
p2772
aS'belligerent'
p2773
aS'knocking'
p2774
aS'copped'
p2775
aS'kobe'
p2776
aS'euphoria'
p2777
aS'miss'
p2778
aS'horse'
p2779
aS'heads'
p2780
aS'rookies'
p2781
aS"d'afrique"
p2782
aS'hamptons'
p2783
aS'identity'
p2784
aS'passed'
p2785
aS'grimy'
p2786
aS'knowchainz'
p2787
aS'syrup'
p2788
aS'challenge'
p2789
aS'starfleet'
p2790
aS"m'attirer"
p2791
aS'park'
p2792
aS'scooby'
p2793
aS'ashley'
p2794
aS'carnage'
p2795
aS'obama'
p2796
aS'kind'
p2797
aS'kindly'
p2798
aS'grey'
p2799
aS'snitched'
p2800
aS'youth'
p2801
aS'bride'
p2802
aS'stall'
p2803
aS'elaborate'
p2804
aS'vacant'
p2805
aS'outta'
p2806
aS'aussi'
p2807
aS'disgusting'
p2808
aS'showers'
p2809
aS'papi'
p2810
aS'reprenne'
p2811
aS'option'
p2812
aS'mountain'
p2813
aS'dancing'
p2814
aS'chippendales'
p2815
aS'couch'
p2816
aS'lit'
p2817
aS'also'
p2818
aS'swallowship'
p2819
aS'sandwiches'
p2820
aS'poplar'
p2821
aS'sneakin'
p2822
aS'brace'
p2823
aS'fella'
p2824
aS"lyin'"
p2825
aS'godfather'
p2826
aS'serve'
p2827
aS'chart'
p2828
aS'mack'
p2829
aS'gain'
p2830
aS'maaco'
p2831
aS'mineral'
p2832
aS'cover'
p2833
aS'barred'
p2834
aS'reflections'
p2835
aS'clean'
p2836
aS'notch'
p2837
aS'hips'
p2838
aS'belle'
p2839
aS'chanter'
p2840
aS'gates'
p2841
aS'itcause'
p2842
aS'session'
p2843
aS'hopped'
p2844
aS'font'
p2845
aS'duncan'
p2846
aS'femstat'
p2847
aS'scooter'
p2848
aS'writer'
p2849
aS'wayne'
p2850
aS'pretty'
p2851
aS'discuss'
p2852
aS'goes'
p2853
aS'triple'
p2854
aS'permission'
p2855
aS'bend'
p2856
aS'zambia'
p2857
aS'horsemeat'
p2858
aS'b'
aS'basement'
p2859
aS'during'
p2860
aS'restart'
p2861
aS'alexander'
p2862
aS"qu'aujourd'hui"
p2863
aS'appeal'
p2864
aS"'din"
p2865
aS'perfume'
p2866
aS'gotten'
p2867
aS'doubles'
p2868
aS'obscure'
p2869
aS'river'
p2870
aS'kingpin'
p2871
aS'cynical'
p2872
aS'devils'
p2873
aS'throwing'
p2874
aS'intelligence'
p2875
aS'breadwinner'
p2876
aS'collectively'
p2877
aS'bam'
p2878
aS'dumb'
p2879
aS'ark'
p2880
aS'sei'
p2881
aS'stt'
p2882
aS'threats'
p2883
aS'fang'
p2884
aS'pictures'
p2885
aS'worsest'
p2886
aS'demons'
p2887
aS'drooping'
p2888
aS'rumbles'
p2889
aS'piss'
p2890
aS'missing'
p2891
aS'sins'
p2892
aS'screeches'
p2893
aS'lyrical'
p2894
aS'c'
aS'reverse'
p2895
aS'components'
p2896
aS'oversea'
p2897
aS'connection'
p2898
aS'forgotten'
p2899
aS'witch'
p2900
aS'load'
p2901
aS'weh'
p2902
aS'jefe'
p2903
aS'majesty'
p2904
aS'rag'
p2905
aS'smashing'
p2906
aS'allegiance'
p2907
aS'dances'
p2908
aS"perrierin'"
p2909
aS'simply'
p2910
aS'responsibility'
p2911
aS"rockin'"
p2912
aS'throughout'
p2913
aS"hackthoo'ing"
p2914
aS'complication'
p2915
aS'cream'
p2916
aS'eljtt'
p2917
aS'glocks'
p2918
aS'dub'
p2919
aS'blink'
p2920
aS'teacher'
p2921
aS'hitting'
p2922
aS'pc'
p2923
aS'secret'
p2924
aS"tweakin'"
p2925
aS'maintenance'
p2926
aS'collected'
p2927
aS'brick'
p2928
aS'pi'
p2929
aS'meeting'
p2930
aS'whoa'
p2931
aS'box'
p2932
aS"d'uss"
p2933
aS'vacay'
p2934
aS'crack'
p2935
aS'stripping'
p2936
aS'representative'
p2937
aS'rocking'
p2938
aS'forza'
p2939
aS"ellesse's"
p2940
aS'tweaked'
p2941
aS'frozen'
p2942
aS'tip'
p2943
aS'ahah'
p2944
aS'governor'
p2945
aS'corrode'
p2946
aS'pace'
p2947
aS'smart'
p2948
aS'kissing'
p2949
aS'mly'
p2950
aS'simbolo'
p2951
aS'cette'
p2952
aS'mots'
p2953
aS'speranza'
p2954
aS'vos'
p2955
aS'attach'
p2956
aS'fraternit'
p2957
aS'chase'
p2958
aS'funny'
p2959
aS'shirt'
p2960
aS'choking'
p2961
aS'perpetrator'
p2962
aS'gofor'
p2963
aS"bein'"
p2964
aS'delicious'
p2965
aS'peoples'
p2966
aS'forgiveness'
p2967
aS"money's"
p2968
aS"'sup"
p2969
aS'camera'
p2970
aS'painless'
p2971
aS'leopard'
p2972
aS'moment'
p2973
aS'levels'
p2974
aS'purpose'
p2975
aS'stack'
p2976
aS'recent'
p2977
aS'finesse'
p2978
aS'barry'
p2979
aS'persuasive'
p2980
aS'rapping'
p2981
aS'de'
p2982
aS'yuck'
p2983
aS'swiss'
p2984
aS'killa'
p2985
aS'meanwhile'
p2986
aS'aroundshe'
p2987
aS'preference'
p2988
aS'milling'
p2989
aS'rapp'
p2990
aS'cheddar'
p2991
aS'db'
p2992
aS'balling'
p2993
aS'questions'
p2994
aS'fishscale'
p2995
aS'matterhorn'
p2996
aS'afro'
p2997
aS'tick'
p2998
aS'colder'
p2999
aS'moist'
p3000
aS'hated'
p3001
aS'cuz'
p3002
aS"kneelin'"
p3003
aS'barack'
p3004
aS'parents'
p3005
aS'dare'
p3006
aS'homies'
p3007
aS'embereknek'
p3008
aS'pompeii'
p3009
aS'brownsicko'
p3010
aS'wings'
p3011
aS'rotate'
p3012
aS'bangbang'
p3013
aS'pillar'
p3014
aS'arthur'
p3015
aS'nipple'
p3016
aS'inspiration'
p3017
aS'disorder'
p3018
aS'limo'
p3019
aS'versa'
p3020
aS'parade'
p3021
aS"rappin'"
p3022
aS'course'
p3023
aS'thisaway'
p3024
aS'bounce'
p3025
aS'lips'
p3026
aS'universes'
p3027
aS'sheesh'
p3028
aS'rarely'
p3029
aS'weirdo'
p3030
aS'bossy'
p3031
aS'nosing'
p3032
aS'shall'
p3033
aS'lasse'
p3034
aS'opry'
p3035
aS'per'
p3036
aS'cast'
p3037
aS"jokin'"
p3038
aS'religion'
p3039
aS'behave'
p3040
aS'bogus'
p3041
aS'lard'
p3042
aS'hotels'
p3043
aS'snort'
p3044
aS'robbery'
p3045
aS'bc'
p3046
aS'grannies'
p3047
aS'fed'
p3048
aS'bk'
p3049
aS'zombie'
p3050
aS'jazzy'
p3051
aS'assists'
p3052
aS'nowhere'
p3053
aS'santa'
p3054
aS'taboo'
p3055
aS'overdose'
p3056
aS'wealth'
p3057
aS"j's"
p3058
aS'braille'
p3059
aS'truck'
p3060
aS'sorrows'
p3061
aS'bgs'
p3062
aS'silence'
p3063
aS'pollution'
p3064
aS'clinton'
p3065
aS'within'
p3066
aS'smelly'
p3067
aS'drifted'
p3068
aS'france'
p3069
aS'lebron'
p3070
aS'rolls'
p3071
aS'smells'
p3072
aS'hines'
p3073
aS'eleven'
p3074
aS'nails'
p3075
aS'plots'
p3076
aS'sock'
p3077
aS'sneaks'
p3078
aS'suis'
p3079
aS'summertime'
p3080
aS'footage'
p3081
aS'crips'
p3082
aS'himself'
p3083
aS'poster'
p3084
aS'frost'
p3085
aS'buttery'
p3086
aS'girlfriends'
p3087
aS'ailleurs'
p3088
aS'hail'
p3089
aS"we's"
p3090
aS'sinner'
p3091
aS'letter'
p3092
aS'cia'
p3093
aS"spendin'"
p3094
aS'onetwo'
p3095
aS'sounds'
p3096
aS'um'
p3097
aS'cartwheel'
p3098
aS'resent'
p3099
aS'fried'
p3100
aS'ordered'
p3101
aS'influence'
p3102
aS'mausoleum'
p3103
aS'seront'
p3104
aS"momma's"
p3105
aS'cure'
p3106
aS"town's"
p3107
aS'necks'
p3108
aS'chat'
p3109
aS'stages'
p3110
aS'wutang'
p3111
aS'villaintake'
p3112
aS'cotton'
p3113
aS'brethren'
p3114
aS'rainbow'
p3115
aS'dashed'
p3116
aS'fears'
p3117
aS'backs'
p3118
aS'nap'
p3119
aS'yang'
p3120
aS'statement'
p3121
aS'tits'
p3122
aS'dungarees'
p3123
aS'mayonnaise'
p3124
aS'hova'
p3125
aS'draw'
p3126
aS'feelinlovely'
p3127
aS'rester'
p3128
aS'squealers'
p3129
aS'gross'
p3130
aS'backbone'
p3131
aS'drag'
p3132
aS'est'
p3133
aS'langages'
p3134
aS'knishes'
p3135
aS'score'
p3136
aS'sides'
p3137
aS'shorelines'
p3138
aS'feasible'
p3139
aS'vice'
p3140
aS'cribs'
p3141
aS'age'
p3142
aS'holes'
p3143
aS'admiring'
p3144
aS'feud'
p3145
aS"skin'ded"
p3146
aS'socrates'
p3147
aS'beverage'
p3148
aS'bandaid'
p3149
aS'mardi'
p3150
aS'vicino'
p3151
aS'alleyways'
p3152
aS'trife'
p3153
aS'totem'
p3154
aS'bboy'
p3155
aS'hyper'
p3156
aS'guzzled'
p3157
aS'kate'
p3158
aS'seemed'
p3159
aS'glows'
p3160
aS'anointed'
p3161
aS'hunger'
p3162
aS'send'
p3163
aS'languages'
p3164
aS'exit'
p3165
aS'fatal'
p3166
aS'dancehall'
p3167
aS'snipes'
p3168
aS'gache'
p3169
aS'infinite'
p3170
aS'gina'
p3171
aS'wave'
p3172
aS'spoon'
p3173
aS'manipulated'
p3174
aS'accuse'
p3175
aS'bosses'
p3176
aS'tenet'
p3177
aS'punkass'
p3178
aS'recorder'
p3179
aS'timely'
p3180
aS'homicidal'
p3181
aS'magic'
p3182
aS'foofur'
p3183
aS'whooping'
p3184
aS'grand'
p3185
aS'fewer'
p3186
aS'joey'
p3187
aS"rappers'"
p3188
aS'picked'
p3189
aS'plead'
p3190
aS'click'
p3191
aS'depression'
p3192
aS"which'll"
p3193
aS'chicago'
p3194
aS'anthem'
p3195
aS'giustizia'
p3196
aS'piper'
p3197
aS'acceso'
p3198
aS'rotten'
p3199
aS'sayoh'
p3200
aS'etincelle'
p3201
aS'thin'
p3202
aS'lessons'
p3203
aS'led'
p3204
aS'lee'
p3205
aS'desires'
p3206
aS"bleedin'"
p3207
aS'commercial'
p3208
aS'fifteenth'
p3209
aS'nimble'
p3210
aS'madvillain'
p3211
aS'sink'
p3212
aS'canals'
p3213
aS'kidnapped'
p3214
aS'jeux'
p3215
aS'metro'
p3216
aS'wesley'
p3217
aS'screech'
p3218
aS'murdered'
p3219
aS'leaving'
p3220
aS'chano'
p3221
aS'ricordarci'
p3222
aS"flowin'"
p3223
aS'climb'
p3224
aS'shaded'
p3225
aS'maker'
p3226
aS'scales'
p3227
aS'forbid'
p3228
aS'private'
p3229
aS'upam'
p3230
aS'privately'
p3231
aS'duck'
p3232
aS'kenny'
p3233
aS'ithe'
p3234
aS'metaphor'
p3235
aS'usa'
p3236
aS'remains'
p3237
aS'pillage'
p3238
aS'feu'
p3239
aS"iv's"
p3240
aS'themselves'
p3241
aS'touched'
p3242
aS'sort'
p3243
aS'vuitton'
p3244
aS'clever'
p3245
aS"slingin'"
p3246
aS'porch'
p3247
aS'sister'
p3248
aS'trail'
p3249
aS'rare'
p3250
aS'iii'
p3251
aS'tweeters'
p3252
aS'crossed'
p3253
aS'oneoff'
p3254
aS'drill'
p3255
aS'gunshots'
p3256
aS'biscuit'
p3257
aS'proof'
p3258
aS'phantom'
p3259
aS'patrol'
p3260
aS'bent'
p3261
aS'plate'
p3262
aS'raps'
p3263
aS'loch'
p3264
aS'benz'
p3265
aS'dripping'
p3266
aS'pieces'
p3267
aS'assumptions'
p3268
aS'tab'
p3269
aS'chic'
p3270
aS'chakra'
p3271
aS'sunglasses'
p3272
aS'tan'
p3273
aS'rape'
p3274
aS'winners'
p3275
aS'animal'
p3276
aS'hormones'
p3277
aS'slamming'
p3278
aS'instead'
p3279
aS'fam'
p3280
aS'profile'
p3281
aS'counterfeits'
p3282
aS'blocks'
p3283
aS'freestyles'
p3284
aS'testimony'
p3285
aS"drippin'"
p3286
aS'tied'
p3287
aS'fart'
p3288
aS'goony'
p3289
aS'wrist'
p3290
aS'blocka'
p3291
aS'threesome'
p3292
aS'barricaded'
p3293
aS'da'
p3294
aS'realized'
p3295
aS"curvin'"
p3296
aS'famous'
p3297
aS'robot'
p3298
aS'scoop'
p3299
aS'alloy'
p3300
aS'counted'
p3301
aS'wonka'
p3302
aS'thigh'
p3303
aS"muh'fuckin'"
p3304
aS'heater'
p3305
aS"piecin'"
p3306
aS'uhaul'
p3307
aS'meter'
p3308
aS'cruise'
p3309
aS'mentioned'
p3310
aS'duociano'
p3311
aS'ln'
p3312
aS'glee'
p3313
aS'sia'
p3314
aS'willing'
p3315
aS'choses'
p3316
aS'blessing'
p3317
aS'dag'
p3318
aS'toppa'
p3319
aS'dal'
p3320
aS'likeyears'
p3321
aS'warmongers'
p3322
aS'dat'
p3323
aS'cutting'
p3324
aS'cage'
p3325
aS'masters'
p3326
aS'thrill'
p3327
aS'trifer'
p3328
aS'dirai'
p3329
aS'shoppa'
p3330
aS'perfectionist'
p3331
aS'trap'
p3332
aS'brownnose'
p3333
aS'shaking'
p3334
aS'erratic'
p3335
aS'glasses'
p3336
aS'bentley'
p3337
aS'gary'
p3338
aS'programmed'
p3339
aS'books'
p3340
aS'apartheid'
p3341
aS'dansent'
p3342
aS'sweatshirt'
p3343
aS'tant'
p3344
aS"steerin'"
p3345
aS'special'
p3346
aS'matrix'
p3347
aS'borderline'
p3348
aS'twice'
p3349
aS'venom'
p3350
aS'drells'
p3351
aS"whatwedodon'ttellyourmom"
p3352
aS'math'
p3353
aS'tested'
p3354
aS'regulators'
p3355
aS'york'
p3356
aS'tempt'
p3357
aS'qui'
p3358
aS'reporters'
p3359
aS'chatham'
p3360
aS'wookie'
p3361
aS'overtake'
p3362
aS'yard'
p3363
aS'elastic'
p3364
aS"d'infinies"
p3365
aS'bougie'
p3366
aS'compulsive'
p3367
aS'conversation'
p3368
aS'chicken'
p3369
aS'birthday'
p3370
aS'chalupa'
p3371
aS'gorillas'
p3372
aS"ar's"
p3373
aS'confuse'
p3374
aS'israelian'
p3375
aS'owned'
p3376
aS'yello'
p3377
aS'vandal'
p3378
aS'shitcause'
p3379
aS'laced'
p3380
aS'fair'
p3381
aS'bologna'
p3382
aS'dumile'
p3383
aS'relations'
p3384
aS'sergeant'
p3385
aS'wrapped'
p3386
aS"l'analyse"
p3387
aS'jellyfish'
p3388
aS'nut'
p3389
aS'boil'
p3390
aS'laters'
p3391
aS'malibu'
p3392
aS'shorty'
p3393
aS'centrifugal'
p3394
aS'goblin'
p3395
aS'herself'
p3396
aS'wishlist'
p3397
aS'lying'
p3398
aS'riches'
p3399
aS'claim'
p3400
aS'rack'
p3401
aS'flashes'
p3402
aS'function'
p3403
aS'villains'
p3404
aS'faster'
p3405
aS'conversate'
p3406
aS'manwhere'
p3407
aS'faut'
p3408
aS'thataway'
p3409
aS'quiche'
p3410
aS'apparently'
p3411
aS'clearly'
p3412
aS'sings'
p3413
aS'afraid'
p3414
aS'linen'
p3415
aS'mia'
p3416
aS'cuore'
p3417
aS"child's"
p3418
aS'able'
p3419
aS'homeboy'
p3420
aS'comedicor'
p3421
aS'funds'
p3422
aS'seductive'
p3423
aS'actinlike'
p3424
aS'deposit'
p3425
aS'jordanschainz'
p3426
aS"crew's"
p3427
aS"time's"
p3428
aS'cipher'
p3429
aS'familia'
p3430
aS'cracking'
p3431
aS'nous'
p3432
aS'sally'
p3433
aS'ishmael'
p3434
aS'downinthis'
p3435
aS'stronger'
p3436
aS'disease'
p3437
aS'movie'
p3438
aS'brew'
p3439
aS'indo'
p3440
aS'capiche'
p3441
aS'goals'
p3442
aS'kite'
p3443
aS"watchin'"
p3444
aS'chances'
p3445
aS'burners'
p3446
aS'sent'
p3447
aS'convertibles'
p3448
aS'seaweed'
p3449
aS'preghiera'
p3450
aS'doodoodoodoodoo'
p3451
aS'rough'
p3452
aS'darkest'
p3453
aS'rollies'
p3454
aS'decade'
p3455
aS'stamped'
p3456
aS'buttnakeds'
p3457
aS'jay'
p3458
aS'overgrown'
p3459
aS"callin'"
p3460
aS'jam'
p3461
aS'lemme'
p3462
aS'yourselves'
p3463
aS'koopa'
p3464
aS'piano'
p3465
aS'handsome'
p3466
aS'local'
p3467
aS"ign'ant"
p3468
aS'meant'
p3469
aS'doubting'
p3470
aS'listened'
p3471
aS'familiar'
p3472
aS'murcilago'
p3473
aS'lucky'
p3474
aS'beam'
p3475
aS'burglars'
p3476
aS'molasses'
p3477
aS'penetrate'
p3478
aS'kong'
p3479
aS'passent'
p3480
aS'smash'
p3481
aS'sundress'
p3482
aS'ended'
p3483
aS'taxes'
p3484
aS'calling'
p3485
aS'stuff'
p3486
aS'tunes'
p3487
aS'fixed'
p3488
aS"weighin'"
p3489
aS'freeze'
p3490
aS'#badbitchalert'
p3491
aS'driveway'
p3492
aS'packed'
p3493
aS'closer'
p3494
aS'wire'
p3495
aS'doubleclutch'
p3496
aS'pedigree'
p3497
aS"everything'll"
p3498
aS'thumb'
p3499
aS'finally'
p3500
aS'doobie'
p3501
aS'quickest'
p3502
aS'pistol'
p3503
aS'paystub'
p3504
aS'ends'
p3505
aS'sho'
p3506
aS'interfere'
p3507
aS'joe'
p3508
aS'spoil'
p3509
aS'sitting'
p3510
aS'group'
p3511
aS'precious'
p3512
aS'boss'
p3513
aS'butta'
p3514
aS"inheritin'"
p3515
aS'titties'
p3516
aS'empathy'
p3517
aS'limits'
p3518
aS'trovi'
p3519
aS'robberies'
p3520
aS'accordion'
p3521
aS'antisocial'
p3522
aS'recorders'
p3523
aS'minds'
p3524
aS'bobbalobs'
p3525
aS'swallow'
p3526
aS"philosophin'"
p3527
aS'masses'
p3528
aS'photographs'
p3529
aS'dupe'
p3530
aS'toilet'
p3531
aS'reborn'
p3532
aS'respect'
p3533
aS'skyis'
p3534
aS"'till"
p3535
aS'willy'
p3536
aS"who'd'a"
p3537
aS'recognize'
p3538
aS'poet'
p3539
aS'haveox'
p3540
aS'sunroof'
p3541
aS"c'"
p3542
aS'al'
p3543
aS'koolaid'
p3544
aS'hmm'
p3545
aS'finished'
p3546
aS'kicks'
p3547
aS'fellow'
p3548
aS'perseveres'
p3549
aS'hallej'
p3550
aS'plain'
p3551
aS'homey'
p3552
aS'tshirt'
p3553
aS'intro'
p3554
aS'cutter'
p3555
aS'archie'
p3556
aS'matrimony'
p3557
aS'tubbies'
p3558
aS'lust'
p3559
aS"spittin'"
p3560
aS"motherdon't"
p3561
aS'whore'
p3562
aS'noi'
p3563
aS'ransom'
p3564
aS'tattoo'
p3565
aS'grinder'
p3566
aS'familyfrom'
p3567
aS'carvel'
p3568
aS'foreverbut'
p3569
aS'absentness'
p3570
aS'underground'
p3571
aS'une'
p3572
aS'bloodsuckers'
p3573
aS'raymond'
p3574
aS'amours'
p3575
aS'doubledutch'
p3576
aS'premiere'
p3577
aS'dopest'
p3578
aS'spree'
p3579
aS"bottle's"
p3580
aS'priest'
p3581
aS'records'
p3582
aS'rollers'
p3583
aS'weapon'
p3584
aS'sento'
p3585
aS"fox'"
p3586
aS'tithes'
p3587
aS'riff'
p3588
aS'oops'
p3589
aS'twirl'
p3590
aS'senza'
p3591
aS'audio'
p3592
aS'grandmama'
p3593
aS'bending'
p3594
aS'coaster'
p3595
aS'nicknames'
p3596
aS"should've"
p3597
aS'ambition'
p3598
aS'flea'
p3599
aS'batteries'
p3600
aS'mistakes'
p3601
aS'distant'
p3602
aS'spells'
p3603
aS'danses'
p3604
aS'titty'
p3605
aS'tight'
p3606
aS'headed'
p3607
aS'sky'
p3608
aS'battery'
p3609
aS'ski'
p3610
aS'wining'
p3611
aS'pied'
p3612
aS'whispers'
p3613
aS'raincoats'
p3614
aS'slimytry'
p3615
aS"who'd"
p3616
aS'candy'
p3617
aS'bucketheaded'
p3618
aS'dancer'
p3619
aS'dresser'
p3620
aS'feast'
p3621
aS'village'
p3622
aS'punctuation'
p3623
aS'holler'
p3624
aS"why'd"
p3625
aS'blade'
p3626
aS'esophagus'
p3627
aS'happens'
p3628
aS'leaf'
p3629
aS'broad'
p3630
aS'lean'
p3631
aS"shippin'"
p3632
aS'constantly'
p3633
aS'tad'
p3634
aS'passion'
p3635
aS'masked'
p3636
aS'overinfluenced'
p3637
aS'screwed'
p3638
aS'noose'
p3639
aS'chains'
p3640
aS'demonstrated'
p3641
aS'blouse'
p3642
aS'carpenter'
p3643
aS'megsajnlt'
p3644
aS'hostage'
p3645
aS'hiding'
p3646
aS'lifestyle'
p3647
aS'carried'
p3648
aS'freedom'
p3649
aS'waist'
p3650
aS'shoes'
p3651
aS'chance'
p3652
aS'nightclub'
p3653
aS"co's"
p3654
aS'insufficient'
p3655
aS'paroles'
p3656
aS'bugle'
p3657
aS'pistols'
p3658
aS'wilderness'
p3659
aS'keeps'
p3660
aS'socks'
p3661
aS'square'
p3662
aS'promise'
p3663
aS'joyce'
p3664
aS'mere'
p3665
aS'beep'
p3666
aS'crave'
p3667
aS'rushed'
p3668
aS'spiral'
p3669
aS'spots'
p3670
aS'bump'
p3671
aS'accountant'
p3672
aS'quanta'
p3673
aS'inner'
p3674
aS'squeal'
p3675
aS'toothpaste'
p3676
aS'beard'
p3677
aS'north'
p3678
aS'coke'
p3679
aS'escrow'
p3680
aS'yuugh'
p3681
aS'bum'
p3682
aS'remords'
p3683
aS'ole'
p3684
aS'count'
p3685
aS'wise'
p3686
aS'glory'
p3687
aS'dangerous'
p3688
aS'j'
aS"kiddin'"
p3689
aS'broads'
p3690
aS'cruel'
p3691
aS'convince'
p3692
aS'limit'
p3693
aS'woke'
p3694
aS'blessings'
p3695
aS'signer'
p3696
aS'unamerican'
p3697
aS'zebra'
p3698
aS'supreme'
p3699
aS'whisper'
p3700
aS'pie'
p3701
aS'twist'
p3702
aS'redcupallonthelawn'
p3703
aS'overproof'
p3704
aS'baow'
p3705
aS'incredible'
p3706
aS'corporation'
p3707
aS'claiming'
p3708
aS'lately'
p3709
aS'schizo'
p3710
aS'granite'
p3711
aS'reckless'
p3712
aS'boog'
p3713
aS'junk'
p3714
aS'repeat'
p3715
aS'monday'
p3716
aS'oppression'
p3717
aS'refreshments'
p3718
aS'foil'
p3719
aS'sherm'
p3720
aS"shootin'"
p3721
aS'dolphins'
p3722
aS"'"
aS'resolution'
p3723
aS'gardena'
p3724
aS'extras'
p3725
aS'bloodsucker'
p3726
aS'understand'
p3727
aS"jammin'"
p3728
aS'gardens'
p3729
a(dp3730
g1394
I2957
sg1395
I3132
sg1396
I2314
sg1399
I3705
sg498
I1249
sg1400
I2208
sg630
I2934
sg1401
I147
sg1402
I2235
sg809
I1464
sg1403
I3377
sg1404
I3612
sg1405
I1137
sg1406
I225
sg3351
I955
sg1408
I3412
sg1122
I2911
sg1409
I2766
sg2940
I1022
sg219
I3442
sg2607
I986
sg500
I3000
sg631
I2486
sg854
I3666
sg1410
I664
sg1411
I1202
sg506
I2131
sg1412
I1407
sg1413
I2390
sg688
I2864
sg1414
I2946
sg117
I1062
sg855
I1667
sg3008
I1025
sg1416
I682
sg1417
I2775
sg99
I1887
sg512
I2764
sg1418
I1643
sg1419
I2920
sg1420
I1769
sg1421
I2618
sg632
I2605
sg2164
I3598
sg1424
I1347
sg1425
I1477
sg1426
I3493
sg856
I636
sg1427
I1012
sg857
I1804
sg501
I3314
sg1428
I721
sg1429
I3329
sg2555
I2319
sg1430
I565
sg1431
I2138
sg1432
I2473
sg3667
I751
sg176
I3101
sg1433
I2772
sg1434
I1796
sg1435
I2851
sg3642
I360
sg1436
I2158
sg504
I1507
sg1437
I3675
sg499
I2774
sg1439
I632
sg1440
I381
sg1441
I3579
sg634
I2436
sg1694
I1832
sg1442
I3421
sg859
I29
sg1443
I530
sg1796
I2152
sg149
I1103
sg157
I1061
sg342
I2994
sg1444
I1998
sg1729
I1727
sg1446
I794
sg1740
I1499
sg860
I2011
sg131
I1500
sg415
I2021
sg1449
I596
sg1450
I2143
sg1451
I2014
sg1453
I892
sg1310
I3218
sg1454
I1918
sg861
I1732
sg635
I825
sg1455
I1342
sg1456
I358
sg2804
I1015
sg1457
I564
sg1692
I3348
sg413
I2317
sg1707
I2416
sg220
I1593
sg1460
I123
sg1461
I968
sg1821
I872
sg1822
I83
sg1463
I566
sg3356
I3718
sg1465
I31
sg1466
I1364
sg1467
I1584
sg1468
I511
sg637
I1115
sg638
I1141
sg1458
I438
sg1469
I2331
sg1050
I2433
sg111
I1525
sg3372
I1373
sg1472
I737
sg272
I643
sg1473
I2425
sg104
I910
sg158
I3667
sg1474
I96
sg1475
I3159
sg863
I157
sg1476
I516
sg1477
I501
sg1478
I172
sg199
I503
sg1479
I507
sg639
I3025
sg1480
I3152
sg864
I3426
sg65
I3214
sg640
I425
sg1483
I646
sg865
I1536
sg1484
I2616
sg1485
I2375
sg866
I1587
sg1486
I1410
sg1979
I1338
sg3362
I2286
sg2686
I2869
sg1487
I1075
sg1703
I1299
sg90
I1526
sg1533
I2263
sg416
I2132
sg8
I1991
sg507
I2028
sg870
I1881
sg508
I2698
sg1489
I1989
sg1490
I2833
sg3626
I335
sg871
I2695
sg1491
I3533
sg1492
I3511
sg1493
I1047
sg872
I2124
sg3366
I401
sg7
I2133
sg1494
I1073
sg1495
I2863
sg1496
I3508
sg2954
I3024
sg2073
I1055
sg140
I1336
sg1498
I1572
sg1499
I2401
sg1500
I2309
sg642
I1544
sg241
I1541
sg1501
I375
sg2100
I3142
sg107
I1719
sg1502
I185
sg1503
I1892
sg3227
I2757
sg1504
I2072
sg319
I1035
sg755
I1758
sg160
I3405
sg1505
I2513
sg874
I472
sg1506
I979
sg1507
I652
sg875
I804
sg1842
I1098
sg1509
I1573
sg60
I1575
sg273
I1565
sg2146
I43
sg1510
I2696
sg876
I132
sg1907
I495
sg1512
I3094
sg1513
I267
sg1515
I2406
sg1516
I789
sg1517
I723
sg1518
I2216
sg1519
I3524
sg643
I277
sg1047
I2019
sg1521
I1629
sg243
I64
sg644
I1910
sg877
I1773
sg2195
I2075
sg1522
I1274
sg646
I1800
sg781
I3544
sg647
I1787
sg2223
I2709
sg1523
I1401
sg1524
I2525
sg2196
I3403
sg878
I138
sg2476
I1125
sg2239
I2
sg1862
I2939
sg230
I3265
sg1526
I109
sg747
I3484
sg1528
I1405
sg2257
I1709
sg317
I1522
sg3660
I1720
sg1530
I2428
sg1128
I3665
sg881
I2261
sg510
I3627
sg649
I3629
sg1532
I3270
sg1977
I1886
sg511
I21
sg3623
I2522
sg1535
I2227
sg882
I1428
sg2285
I777
sg1536
I1686
sg2289
I2211
sg3280
I1105
sg1537
I2748
sg883
I2166
sg1539
I1988
sg189
I286
sg651
I1924
sg1540
I1948
sg1541
I1187
sg652
I2992
sg1542
I214
sg2338
I869
sg450
I756
sg244
I311
sg884
I1170
sg1545
I1091
sg1546
I3600
sg1547
I1506
sg1548
I2278
sg57
I3249
sg555
I1607
sg2966
I2351
sg414
I3554
sg1550
I1962
sg653
I421
sg1551
I1523
sg245
I235
sg2574
I1489
sg1552
I2582
sg26
I3253
sg2933
I798
sg1792
I2029
sg1553
I2894
sg885
I238
sg886
I2828
sg1554
I742
sg654
I1997
sS'l'
I1767
sg1556
I2682
sg1557
I1911
sg1558
I1504
sg1559
I2593
sg417
I999
sg1560
I2734
sg274
I3576
sg1561
I377
sg1562
I1992
sg1563
I376
sg2470
I1912
sg1564
I1839
sg2485
I2782
sg125
I3328
sg1566
I1627
sg887
I2117
sg1567
I193
sg1568
I2038
sg888
I3196
sg1569
I3356
sg655
I3553
sg2515
I1242
sg1571
I1205
sg1572
I2749
sg656
I3597
sg788
I1554
sg83
I490
sg1573
I3448
sg105
I1355
sg1574
I2103
sg1575
I510
sg1576
I3536
sg1577
I3332
sg891
I2580
sg1578
I1778
sg1579
I2626
sg1580
I49
sg1581
I3513
sg30
I1376
sg1583
I1548
sg2212
I2045
sg1584
I2941
sg1585
I1402
sg2824
I1145
sg1807
I3077
sg1586
I2930
sg418
I1259
sg1587
I2947
sg2625
I822
sg1589
I1245
sg1590
I1045
sg1591
I1746
sg1592
I1266
sg2647
I805
sg1593
I178
sg1594
I2604
sg363
I829
sg1595
I179
sg1596
I1553
sg3177
I3222
sg1598
I2978
sg1599
I2355
sg1227
I2122
sg3387
I1768
sg1602
I1900
sg1603
I330
sg893
I3109
sg409
I3607
sg77
I1594
sg1605
I545
sg1606
I103
sg2707
I1134
sg657
I1385
sg1608
I2457
sg1609
I1547
sg1610
I3029
sg1611
I1207
sg578
I602
sg1612
I3212
sg1613
I3258
sg246
I1546
sg1614
I441
sg1615
I256
sg367
I3251
sg1616
I2819
sg2488
I1388
sg190
I3340
sg1619
I1331
sg1620
I3470
sg1621
I1158
sg658
I2156
sg1175
I675
sg2790
I3063
sg1622
I3330
sg1623
I320
sg1624
I980
sg275
I1139
sg1625
I3312
sg1626
I918
sg364
I1863
sg1627
I546
sg298
I2129
sg2706
I3130
sg1628
I1384
sg1629
I1599
sg365
I3337
sg1630
I2187
sg1631
I100
sg2840
I570
sg1632
I3540
sg895
I752
sg382
I3603
sg1633
I3458
sg2511
I906
sg1634
I136
sg1635
I2559
sg896
I745
sg897
I3365
sg1637
I2721
sg300
I1981
sg1639
I1192
sg1640
I1039
sg898
I1649
sg1641
I1568
sS'k'
I1714
sg276
I1140
sg1643
I2465
sg899
I431
sg2587
I1118
sg1133
I1798
sg1646
I2560
sg222
I2046
sg661
I2048
sg1215
I2578
sg247
I2564
sg320
I2800
sg1648
I2797
sg1649
I2222
sg1555
I2053
sg1651
I3217
sg663
I3103
sg1653
I2835
sg1654
I2313
sg1655
I3441
sg900
I2971
sg2993
I230
sg1658
I2174
sg901
I936
sg1659
I2785
sg1660
I2307
sg1661
I2665
sg118
I1060
sg1662
I1328
sg1663
I1653
sg3033
I2832
sg1664
I452
sg419
I2568
sg36
I3583
sg2007
I1952
sg1666
I2830
sg132
I3184
sg1381
I2965
sg366
I2118
sg1667
I50
sg3092
I1829
sg672
I1485
sg1668
I2372
sg1669
I972
sg1670
I1082
sg903
I1345
sg1671
I2098
sg904
I925
sg3090
I3556
sg1672
I1618
sg287
I1210
sg1673
I917
sg1674
I229
sg1675
I3364
sg1676
I1545
sg1677
I3156
sg1197
I847
sg905
I3296
sg1678
I2771
sg906
I2773
sg205
I508
sg3151
I3492
sg665
I2755
sg907
I1922
sg1680
I645
sg1270
I2537
sg1682
I498
sg2542
I1779
sg3530
I992
sg1685
I183
sg1686
I677
sg1687
I1307
sg1688
I3564
sg1013
I1002
sg1690
I223
sg3203
I1826
sg2235
I712
sg1693
I3026
sg858
I1843
sg1695
I897
sg908
I480
sg1697
I2012
sg1698
I3450
sg1488
I2661
sg516
I2658
sg1700
I1222
sg909
I1302
sg1701
I2781
sg666
I1985
sg42
I911
sg3272
I3141
sg1704
I1358
sg517
I876
sg1706
I1564
sg2982
I832
sg2992
I830
sg1708
I831
sg518
I640
sg1709
I1311
sg910
I1999
sg1710
I3545
sg1711
I244
sg1712
I2630
sg1713
I1642
sg1714
I981
sg1715
I3242
sg1716
I1000
sg911
I241
sg1717
I3028
sg674
I3646
sg912
I220
sg223
I218
sg1718
I219
sg1719
I1310
sg278
I2872
sg1720
I232
sg2878
I231
sg1722
I3073
sg1723
I1323
sg1724
I1001
sg3607
I1476
sg1725
I346
sg1726
I680
sg519
I1859
sg1727
I2637
sg1728
I797
sg913
I228
sg1445
I2092
sg1730
I1093
sg1731
I3385
sg914
I2382
sg1732
I1446
sg248
I308
sg1733
I494
sg96
I2727
sg1734
I2246
sg1187
I3517
sg3441
I518
sg1735
I2926
sg621
I3537
sg1737
I317
sg3136
I2770
sg1738
I2728
sg1739
I2335
sg1447
I3719
sg1741
I3002
sg1742
I149
sg1743
I1801
sg64
I2167
sg1744
I489
sg1745
I2685
sg1746
I1147
sg3448
I701
sg1747
I1576
sg3513
I391
sg1749
I2180
sg520
I3561
sg831
I743
sg1751
I2686
sg743
I2518
sg1350
I1220
sg1752
I626
sg918
I35
sg1753
I3151
sg1355
I736
sg1755
I1609
sg421
I676
sg919
I66
sg1597
I3326
sg1757
I1300
sg667
I1033
sg1758
I412
sg3578
I938
sg1760
I1683
sg422
I169
sg1761
I679
sg932
I3131
sg1762
I1821
sg1763
I3472
sg1764
I1673
sg1765
I1193
sg1766
I459
sg1767
I1678
sg920
I3335
sg1769
I1874
sg3683
I2625
sg1770
I3244
sg423
I3012
sg1771
I1399
sg1772
I3091
sg1773
I260
sg921
I2369
sg668
I281
sg1774
I254
sg3654
I639
sg424
I3280
sg91
I282
sg922
I361
sg3666
I283
sg923
I284
sg3468
I1604
sg1777
I253
sg924
I1279
sg669
I1904
sg925
I3284
sg87
I1835
sg2207
I3622
sg926
I845
sg521
I3033
sg1779
I1006
sg927
I976
sg1780
I26
sg1781
I2159
sg1782
I2636
sg1783
I1497
sg488
I3635
sg1926
I3717
sg2040
I1151
sg1785
I2908
sg1786
I3501
sg369
I592
sg928
I537
sg1787
I1466
sg1788
I10
sg322
I595
sg370
I1462
sg1789
I1349
sg1790
I3189
sg1422
I1256
sg2228
I1914
sg1793
I3194
sg522
I79
sg1794
I75
sg670
I3430
sg1795
I2151
sg523
I76
sg1817
I547
sg636
I1814
sg3039
I2620
sg3344
I3190
sg1423
I1030
sg1798
I2060
sg930
I2822
sg1799
I2514
sg1800
I3482
sg1801
I2418
sg15
I1651
sg2383
I3016
sg10
I1656
sg1802
I1101
sg1803
I1605
sg1804
I2419
sg931
I1608
sg6
I1617
sg1805
I1332
sg1806
I660
sg39
I1603
sg524
I397
sg1140
I2981
sg1808
I2356
sg2839
I296
sg75
I1942
sg426
I2105
sg933
I1064
sg934
I298
sg1810
I209
sg1811
I3480
sg935
I2415
sg1812
I2823
sg1813
I1419
sg1814
I2003
sg936
I1455
sg525
I2956
sg1815
I576
sg3413
I2902
sg503
I363
sg1818
I1453
sg817
I2032
sg2623
I1070
sg279
I1449
sg1820
I2924
sg937
I2590
sg938
I3428
sg732
I1473
sg1823
I3276
sg939
I1729
sg1824
I484
sg1825
I1487
sg1826
I1724
sg427
I1582
sg1827
I1953
sg1828
I3129
sg3700
I3601
sg940
I2693
sg1829
I1404
sg1830
I2107
sg1831
I2041
sg1859
I259
sg2
I3243
sg1832
I1208
sg941
I717
sg942
I3728
sg224
I1820
sg1833
I2786
sg943
I2839
sg1836
I856
sg28
I1712
sg1837
I2809
sg2547
I3067
sg1838
I3237
sg1839
I3487
sg2200
I1443
sg1840
I2275
sg944
I460
sg3034
I1789
sg946
I1581
sg1841
I3158
sg947
I3706
sg191
I3707
sg948
I3710
sg949
I1438
sg2629
I51
sg1843
I1655
sg951
I1004
sg120
I1437
sg1845
I715
sg1846
I3166
sg1847
I1928
sg1056
I647
sg1848
I2717
sg678
I1007
sg1850
I2492
sg1851
I2405
sg679
I1005
sg1852
I1463
sg428
I1308
sg955
I2876
sg484
I3594
sg1854
I2006
sg953
I234
sg1855
I424
sg1857
I521
sg1858
I152
sg3155
I264
sg3104
I2815
sg954
I1707
sg2612
I2857
sg324
I954
sg1861
I141
sg1853
I866
sg505
I448
sg3423
I2793
sg1863
I368
sg1864
I2214
sg1865
I1271
sg956
I2624
sg1894
I2228
sg225
I2178
sg1867
I118
sg1868
I2792
sg3014
I2392
sg1871
I2783
sg1872
I2479
sg101
I2669
sg250
I2233
sg3684
I2236
sg680
I836
sg226
I2350
sg1874
I2806
sg1875
I2248
sg1876
I835
sg957
I2985
sg280
I834
sg527
I390
sg1877
I927
sg281
I3150
sg1878
I3463
sg1879
I2191
sg1880
I1480
sg1954
I1049
sg1881
I389
sg958
I1177
sg1882
I1040
sg2459
I3334
sg1883
I1600
sg1974
I708
sg20
I1233
sg429
I398
sg1885
I1880
sg2261
I2701
sg1887
I1250
sg1888
I2459
sg1889
I1598
sg1890
I9
sg227
I1067
sg1892
I1671
sg2263
I585
sg1893
I2816
sg1866
I3079
sg2013
I273
sg2016
I604
sg85
I3604
sg1899
I373
sg430
I2232
sg1900
I713
sg528
I475
sg1901
I359
sg1902
I3515
sg1375
I1771
sg2892
I2905
sg1904
I3080
sg959
I1895
sg1906
I2347
sg192
I3145
sg1908
I3577
sg2085
I1316
sg1909
I1209
sg1910
I3703
sg961
I746
sg1911
I1211
sg1912
I2645
sg1913
I3427
sg529
I2429
sg1915
I1026
sg2132
I985
sg962
I2554
sg1917
I71
sg1918
I1276
sg963
I2480
sg1919
I2338
sg964
I73
sg676
I404
sg431
I2993
sg66
I948
sg677
I1834
sg1921
I1150
sg1922
I520
sg1923
I3007
sg1924
I3670
sg1925
I1270
sg965
I2706
sg2090
I2852
sg1927
I841
sg526
I766
sg1928
I386
sg3633
I693
sg1929
I3360
sg1930
I1882
sg681
I1164
sg967
I3117
sg1931
I1703
sg968
I3668
sg76
I3549
sg1932
I1102
sg969
I1325
sg38
I3535
sg2238
I688
sg2152
I2848
sg1933
I3529
sg141
I1475
sg970
I2655
sg1935
I2591
sg481
I2988
sg1936
I1182
sg1937
I2885
sg1938
I1016
sg1939
I1094
sg325
I1486
sg1940
I1020
sg206
I1481
sg1941
I924
sg282
I3388
sg1942
I180
sg971
I2700
sg121
I1630
sg1943
I2125
sg3026
I1858
sg683
I3454
sg1945
I757
sg1946
I3504
sg432
I800
sg1947
I2812
sg2317
I1616
sg1949
I2744
sg1950
I1567
sg1951
I3085
sg1952
I2758
sg1953
I3344
sg1955
I3238
sg200
I2984
sg1956
I3297
sg2368
I1081
sg1957
I2506
sg1958
I1990
sg530
I2469
sg973
I2689
sg1959
I667
sg1960
I2079
sg1279
I837
sg48
I2855
sg2385
I211
sg1962
I1532
sg974
I1457
sg531
I1206
sg975
I3315
sg2943
I3311
sg1963
I2150
sg976
I2587
sg213
I2463
sg977
I3309
sg1965
I3110
sg1966
I1529
sg978
I3226
sg2810
I2310
sg532
I2684
sg1968
I2383
sg2217
I3713
sg979
I15
sg2444
I447
sg2450
I2074
sg174
I3613
sg1971
I1013
sg980
I888
sg372
I1828
sg981
I1144
sg748
I3208
sg1973
I887
sg982
I2690
sg1657
I11
sg983
I3567
sg1975
I886
sg1976
I1890
sg3405
I1120
sg1978
I996
sg867
I2374
sg1980
I2368
sg1981
I724
sg1982
I802
sg1983
I1668
sg3452
I2705
sg2936
I3111
sg685
I1528
sg339
I3211
sg1986
I3053
sg686
I2995
sg1987
I681
sg1988
I3473
sg433
I553
sg687
I807
sg1989
I2923
sg984
I2683
sg1990
I1218
sg3409
I3241
sg985
I187
sg1991
I2039
sg986
I2915
sg1992
I1398
sg434
I2921
sg1993
I2702
sg869
I1530
sg2614
I1738
sg1995
I227
sg193
I3742
sg1891
I1219
sg2695
I930
sg988
I1124
sg2808
I903
sg1998
I3261
sg1999
I3435
sg2000
I108
sg3500
I1171
sg2002
I2657
sg2003
I1968
sg1281
I2901
sg2004
I2925
sg263
I2663
sg2005
I2474
sg759
I449
sg989
I3108
sg435
I1685
sg2006
I347
sg1905
I144
sg2008
I2944
sg2689
I1166
sg2010
I3479
sg2011
I2264
sg1136
I1927
sg689
I3380
sg991
I337
sg690
I2398
sg992
I2054
sg228
I707
sg2012
I893
sg1895
I2094
sg2014
I3658
sg2015
I237
sg374
I1830
sg375
I883
sg3341
I142
sg533
I891
sg1897
I877
sg1696
I695
sg327
I1812
sS'p'
I2292
sg2017
I1074
sg2651
I2765
sg994
I908
sg2018
I1430
sg2019
I895
sg996
I551
sg1984
I3531
sg997
I3032
sg2020
I418
sg2282
I3204
sg27
I266
sg2023
I1770
sg998
I2889
sg999
I725
sg1997
I2504
sg1809
I2332
sg1001
I1130
sg2025
I711
sg2026
I778
sg2981
I2571
sg2028
I243
sg2029
I2715
sg2031
I2621
sg2032
I1169
sg2033
I2710
sg2853
I1359
sg3047
I1394
sg2864
I146
sg2038
I1258
sg1002
I600
sg2039
I2260
sg641
I2123
sg2041
I3425
sg2042
I1263
sg2043
I1813
sg2044
I1860
sg2045
I694
sg331
I2945
sg2047
I434
sg2048
I380
sg2049
I2980
sg436
I101
sg2050
I3127
sg2051
I102
sg2052
I3202
sg2053
I704
sg1003
I563
sg2578
I3088
sg1004
I201
sg437
I409
sg2054
I2607
sg1778
I771
sg1903
I2555
sg2056
I435
sg2952
I552
sg2057
I1710
sg2058
I407
sg2059
I3367
sg1005
I3647
sg2151
I1069
sg693
I378
sg2061
I3464
sg1006
I3572
sg2062
I453
sg2063
I2746
sg534
I2112
sg2064
I1232
sg45
I1902
sg2065
I355
sg1007
I1083
sg2066
I1934
sg2067
I3154
sg2068
I2900
sg2069
I2557
sg352
I1100
sg801
I2100
sg2070
I2454
sg3043
I1566
sg159
I1063
sg2072
I2644
sg873
I1265
sg2074
I3660
sg2075
I2512
sg2076
I204
sg1009
I984
sg536
I3206
sg3069
I1253
sg694
I3681
sg146
I1867
sg2287
I3654
sg122
I205
sg2078
I3651
sg1010
I2010
sg2079
I785
sg1011
I1945
sg2080
I581
sg537
I3325
sg2082
I1908
sg695
I2111
sg2083
I2836
sg2084
I3362
sg960
I2989
sg2086
I59
sg2087
I638
sg1012
I2251
sg2088
I620
sg696
I2247
sg2089
I16
sg697
I973
sg1898
I285
sg2092
I2464
sg2093
I2664
sg438
I1216
sg2094
I399
sg2095
I929
sg67
I2177
sg439
I523
sg207
I3003
sg40
I512
sg377
I1722
sg1014
I294
sg2097
I496
sg602
I2022
sg2098
I161
sg2099
I1795
sg1015
I1907
sg3400
I615
sg1283
I843
sg79
I3527
sg1016
I1167
sg698
I597
sg1702
I2807
sg1018
I884
sg68
I1281
sg2101
I68
sg2102
I1406
sg2103
I2044
sg328
I1482
sg806
I3112
sg2104
I27
sg2105
I2453
sg2106
I133
sg2107
I3522
sg3270
I588
sg699
I3089
sg2108
I42
sg2109
I2397
sg2110
I1217
sg2111
I2888
sg822
I3543
sg2112
I406
sg441
I3677
sg3645
I1563
sg2113
I3139
sg2114
I3506
sg2115
I2526
sg2116
I3167
sg2117
I3014
sg2118
I3168
sg3473
I2128
sg2120
I3071
sg1023
I1027
sg2121
I1984
sg617
I909
sg700
I3038
sg2122
I1848
sg2123
I1286
sg3370
I323
sg378
I1932
sg2124
I824
sg2125
I3125
sg2126
I735
sg2127
I1431
sg1026
I1418
sg2129
I1351
sg2128
I3104
sg701
I2148
sg702
I2153
sg1027
I3590
sg194
I1986
sg323
I3509
sg1028
I195
sg2130
I1755
sg185
I3245
sg619
I2882
sg1325
I1670
sg3425
I857
sg704
I62
sg1029
I2226
sg3432
I2209
sg2131
I3386
sg3064
I2439
sg1328
I2784
sg1030
I1841
sg1916
I2163
sg2827
I2817
sg2133
I1238
sg1031
I2219
sg3479
I1760
sg1032
I1113
sg706
I415
sg2134
I2656
sg379
I2829
sg1033
I1716
sg284
I650
sg92
I3086
sg3520
I2676
sg1034
I3342
sg3511
I1417
sg3515
I1625
sg3521
I37
sg1035
I3232
sg2138
I583
sg1036
I3381
sg1037
I3690
sg2139
I1472
sg2140
I186
sg380
I3628
sg3285
I3228
sg707
I2269
sg650
I1454
sg824
I1321
sg2141
I840
sg2142
I2085
sg2143
I1885
sg3555
I786
sg2301
I2210
sg539
I1883
sg509
I1551
sg3481
I2950
sg2147
I2086
sg2148
I2556
sg2602
I1636
sg1040
I2147
sg2149
I1915
sg1363
I690
sg1041
I1442
sg69
I2202
sg41
I2212
sg2353
I468
sg2153
I2200
sg177
I4
sg196
I2141
sg2154
I3235
sg2155
I1674
sg242
I3308
sg329
I970
sg2156
I291
sg2157
I2343
sg1462
I3233
sg3613
I3602
sg444
I2679
sg2158
I3481
sg1042
I2535
sg2159
I2113
sg2160
I428
sg2161
I1032
sg1043
I1179
sg2162
I1715
sg58
I3697
sg2163
I1371
sg1844
I1181
sg2165
I1154
sg2166
I1071
sg2167
I3699
sg540
I1056
sg133
I1327
sg2304
I3662
sg1044
I2394
sg345
I3370
sg2171
I86
sg541
I1870
sg2172
I113
sg2173
I1669
sg1045
I2500
sg2174
I3444
sg2175
I1640
sg1299
I1889
sg1520
I3685
sg2176
I405
sg2177
I1648
sg708
I2877
sg2178
I2576
sg2180
I3046
sg2181
I719
sg542
I2880
sg2182
I854
sg760
I1435
sg229
I2095
sg2184
I941
sg2185
I2497
sg543
I2043
sg2186
I1580
sg2187
I3105
sg2188
I905
sg3487
I3402
sg2190
I2289
sg2191
I3455
sg1048
I307
sg1049
I1390
sg1470
I1377
sg2192
I728
sg709
I524
sg168
I1869
sg2193
I902
sg2194
I3734
sg710
I2523
sg645
I3680
sg1051
I1543
sg252
I1888
sg188
I3263
sg253
I2407
sg3506
I2858
sg2197
I2005
sg880
I2110
sg143
I1183
sg711
I348
sg2198
I584
sg2199
I1646
sg966
I493
sg2201
I2647
sg2202
I3711
sg3077
I2975
sg2204
I224
sg2205
I3547
sg2206
I759
sg2920
I350
sg1896
I2485
sg2751
I2747
sg2208
I115
sg154
I1884
sg2683
I1647
sg3489
I3570
sg713
I2671
sg2251
I1085
sg1053
I1314
sg72
I8
sg2989
I2042
sg2213
I2627
sg330
I613
sg208
I1866
sg1588
I569
sg2214
I580
sg2215
I3673
sg2684
I1786
sg544
I539
sg3650
I3514
sg2219
I2413
sg1055
I139
sg2220
I3358
sg2221
I2363
sg2222
I698
sg3304
I2127
sg552
I3581
sg2224
I3013
sg2225
I3229
sg2226
I2008
sg197
I1087
sg2227
I1578
sg3585
I2810
sg2229
I52
sg2230
I93
sg9
I3239
sg2231
I2650
sg714
I416
sg2232
I3476
sg545
I1579
sg1057
I2961
sg2482
I2859
sg2234
I2533
sg2702
I1213
sg2236
I1527
sg134
I3231
sg1058
I1501
sg1059
I3615
sg2321
I2873
sg2681
I3044
sg879
I3268
sg2237
I1129
sg231
I1378
sg371
I3530
sg1525
I671
sg2240
I1294
sg2241
I2254
sg108
I3578
sg2242
I3534
sg2243
I2271
sg2244
I2462
sg4
I125
sg2813
I2116
sg1060
I3382
sg1061
I126
sg2245
I2933
sg715
I3406
sg2246
I1967
sg2247
I2931
sg2248
I1899
sg61
I2753
sg2249
I2065
sg716
I1561
sg2250
I422
sg3241
I3248
sg546
I2752
sg1062
I137
sg2252
I58
sg1063
I2860
sg2253
I3743
sg717
I2204
sg175
I2265
sg1607
I3019
sg2254
I1682
sg97
I3179
sg1064
I870
sg383
I3650
sg2256
I364
sg2762
I310
sg2259
I287
sg1065
I122
sg209
I2300
sg2260
I1665
sg1886
I2255
sg2262
I155
sg3239
I1152
sg2264
I2298
sg445
I1749
sg2265
I2371
sg718
I2299
sg2266
I2842
sg2267
I1916
sg719
I2303
sg547
I112
sg1066
I2754
sg285
I1236
sg3088
I74
sg1067
I198
sg1068
I2865
sg1069
I964
sg2270
I3338
sg2308
I3551
sg1166
I2780
sg720
I2932
sg2271
I3087
sg2272
I3440
sg2273
I2732
sg1071
I1797
sg2274
I2359
sg2275
I3521
sg286
I2871
sg2276
I466
sg210
I2878
sg1072
I578
sg2277
I2731
sg2278
I1162
sg2279
I432
sg2280
I3009
sg2281
I2861
sg2021
I1479
sg2713
I714
sg2284
I2062
sg2037
I1255
sg2046
I2160
sg2900
I3638
sg721
I881
sg446
I882
sg169
I1046
sg447
I761
sg2286
I3507
sg93
I2244
sg376
I1362
sg211
I333
sg1074
I1958
sg361
I2277
sg2290
I3324
sg332
I3520
sg2169
I1072
sg25
I1315
sg2292
I696
sg2293
I3090
sg2294
I880
sg2295
I617
sg722
I3389
sg1075
I517
sg2297
I1733
sg333
I19
sg1076
I2088
sg2298
I1549
sg2299
I2145
sg2145
I635
sg2302
I2395
sg2303
I1811
sg2168
I2101
sg1077
I2140
sg548
I1361
sg549
I730
sg818
I2070
sg59
I3591
sg147
I3686
sg2305
I684
sg2306
I608
sg2310
I1975
sg1078
I2787
sg2779
I1559
sg334
I1524
sg2291
I1389
sg2255
I683
sg1070
I764
sg1079
I1774
sg2309
I2241
sg466
I289
sg724
I312
sg2311
I3210
sg2312
I44
sg2313
I1246
sg2314
I160
sg2315
I2207
sg2316
I1695
sg1642
I13
sg2318
I2315
sg2319
I820
sg576
I3123
sg2320
I1737
sg725
I336
sg2462
I22
sg2322
I3010
sg232
I1680
sg2323
I3011
sg112
I661
sg2325
I3708
sg2326
I1557
sg2327
I3146
sg449
I1961
sg3022
I2570
sg2328
I2488
sg2329
I36
sg2330
I2508
sS's'
I2722
sg2331
I3350
sg2332
I3351
sg2333
I306
sg2334
I2182
sg2335
I3588
sg82
I513
sg2336
I1959
sg2401
I116
sg551
I657
sg1081
I2456
sg1948
I2507
sg254
I2447
sg1082
I2442
sg726
I2437
sg2339
I2608
sg335
I731
sg1083
I2440
sg3101
I2262
sg1544
I3679
sg2341
I2918
sg2342
I3343
sg2343
I1692
sg425
I2751
sg2344
I1836
sg2345
I526
sg2091
I2917
sg2081
I1034
sg2346
I3467
sg181
I3397
sg2347
I738
sg2348
I1687
sg2530
I2489
sg2417
I2736
sg2349
I3061
sg2350
I1577
sg2351
I388
sg1085
I1461
sg727
I1971
sg2354
I1043
sg2534
I1024
sg3317
I344
sg2356
I3191
sg2357
I2968
sg3184
I3610
sg336
I3518
sg2359
I1634
sg2360
I1650
sg1086
I3031
sg729
I3273
sg567
I533
sg233
I2134
sg1087
I1160
sg81
I3252
sg2361
I2750
sg2362
I2115
sg3303
I3260
sg553
I534
sg554
I2654
sg2363
I3369
sg3037
I535
sg2365
I2243
sg2366
I1688
sg972
I1079
sg2369
I1966
sg2370
I3488
sg2371
I2844
sg2372
I2711
sg2373
I2528
sg2648
I3213
sg2374
I444
sg1665
I2091
sg1089
I2034
sg2375
I316
sg3524
I2047
sg2725
I292
sg2669
I567
sg2378
I1065
sg2379
I2308
sg2380
I1495
sg598
I890
sg556
I2324
sg730
I912
sg2071
I3525
sg557
I2336
sg2381
I1395
sg558
I3349
sg178
I2735
sg212
I579
sg2382
I1313
sg98
I3687
sg337
I2435
sg2714
I1224
sg2384
I1905
sg1092
I3126
sg29
I1657
sg2728
I2531
sg2388
I3566
sg3259
I2370
sg2390
I1175
sg1093
I966
sg2391
I2165
sg1165
I2935
sg452
I2719
sg2392
I1278
sg150
I3420
sg2394
I7
sg2395
I3495
sg2415
I3557
sg32
I2188
sg338
I3641
sg2821
I2448
sg550
I663
sg2896
I673
sg1096
I1664
sg2397
I2073
sg2398
I542
sg559
I369
sg2399
I571
sg2841
I1306
sg321
I3392
sg2400
I2586
sg2337
I2304
sg109
I2089
sg1345
I609
sg2403
I56
sg2404
I2673
sg2405
I1602
sg2406
I3503
sg161
I1734
sg1097
I3617
sg126
I3346
sg453
I2069
sg2407
I522
sg2408
I1433
sg2409
I90
sg2410
I2707
sg1200
I838
sg2412
I896
sg2413
I2843
sg2414
I3267
sg1022
I2699
sg1098
I2799
sg1099
I1076
sg2416
I2959
sg733
I3486
sg2815
I598
sg2418
I2287
sg902
I2424
sg585
I2581
sg1100
I3115
sg1216
I1415
sg3391
I1793
sg180
I158
sg2964
I290
sg2420
I111
sg1101
I2739
sg255
I1367
sg384
I817
sg2421
I2076
sg2985
I1735
sg2423
I819
sg1102
I2071
sg2424
I2745
sg490
I3519
sg2425
I1777
sg3003
I1748
sg3006
I816
sg2428
I3740
sg3529
I2376
sg2429
I1590
sg2430
I3417
sg2431
I2056
sg2432
I1842
sg2433
I1324
sg574
I1014
sg734
I1445
sg2436
I2818
sg2437
I1334
sg2438
I1550
sg2439
I618
sg2440
I921
sg1849
I1689
sg2441
I2983
sg1105
I3173
sg2442
I497
sg1969
I3415
sg3130
I1416
sg2446
I2938
sg561
I2097
sg2447
I2106
sg1106
I2009
sg3110
I3055
sg2449
I2282
sg1970
I3321
sg3165
I1080
sg3179
I2601
sg2452
I3041
sg2719
I3712
sg2453
I1750
sg2454
I1588
sg2455
I3404
sg739
I2546
sg476
I479
sg3075
I2139
sg2458
I1721
sg3656
I2320
sg2460
I84
sg455
I443
sg2024
I3465
sg2461
I2142
sg1511
I2763
sg2463
I1077
sg385
I3289
sg2464
I268
sg2465
I433
sg12
I2237
sg123
I2230
sg3256
I1429
sg2467
I3050
sg736
I2886
sg2468
I1425
sg1084
I3106
sg288
I3059
sg1108
I2432
sg2979
I248
sg3292
I3283
sg2469
I2267
sg221
I1993
sg62
I2259
sg2471
I2675
sg821
I3192
sg2473
I331
sg1110
I1776
sg2474
I780
sg2475
I670
sg2477
I343
sg2479
I779
sg2480
I40
sg2481
I2093
sg3338
I1305
sg2484
I1018
sg737
I3395
sg11
I3727
sg1565
I2958
sg1111
I456
sg738
I1876
sg2526
I1168
sg43
I1498
sg2487
I762
sg113
I3250
sg257
I1505
sg2889
I2716
sg740
I538
sg2489
I2346
sg741
I1909
sg405
I1898
sg2490
I975
sg2491
I971
sg742
I454
sg2492
I1184
sg2493
I1614
sg834
I3363
sg3418
I593
sg1021
I3304
sg2495
I2033
sg1113
I117
sg1114
I2998
sg3483
I1036
sg2496
I3396
sg16
I3639
sg2497
I1624
sg2498
I3695
sg563
I1348
sg2604
I2197
sg835
I3539
sg2500
I3215
sg2501
I3684
sg2502
I1088
sg2503
I2296
sg3140
I3491
sg2506
I3575
sg2507
I446
sg2508
I2550
sg2509
I1397
sg2510
I2192
sg289
I1366
sg2512
I32
sg2513
I1807
sg564
I1698
sg456
I3193
sg1115
I70
sg1349
I81
sg1570
I3074
sg135
I107
sg3543
I85
sg1116
I844
sg3548
I1146
sg2517
I3548
sg1117
I1611
sg103
I165
sg2518
I150
sg54
I176
sg623
I199
sg2520
I1329
sg2521
I1838
sg3561
I2108
sg2523
I206
sg2524
I2445
sg3568
I532
sg2525
I536
sg2916
I755
sg457
I463
sg3575
I120
sg2527
I3716
sg1482
I862
sg744
I216
sg2531
I1159
sg2532
I2431
sg2533
I1494
sg1372
I1229
sg728
I3277
sg2535
I2446
sg114
I1365
sg2536
I274
sg1471
I3246
sg145
I3247
sg2537
I868
sg80
I3305
sg2538
I38
sg3643
I528
sg2540
I1615
sg833
I465
sg1118
I2840
sg2541
I3040
sg386
I2444
sg1120
I464
sg1759
I3118
sg2300
I148
sg2543
I3616
sg291
I3715
sg1209
I781
sg2544
I413
sg2545
I384
sg2546
I3585
sg341
I104
sg3723
I2638
sg2548
I3378
sg2549
I203
sg17
I92
sg1407
I487
sg745
I1239
sg3235
I2023
sg2550
I541
sg2324
I88
sg292
I922
sg2552
I2096
sg2553
I3124
sg2554
I3738
sg3056
I2279
sg746
I1223
sg2556
I98
sg1123
I594
sg2557
I143
sg3675
I3047
sg2558
I2185
sg1124
I3409
sg2559
I2712
sg293
I3399
sg2560
I3298
sg5
I3320
sg2561
I3177
sg2562
I3528
sg2563
I3230
sg1125
I2955
sg1126
I3199
sg2564
I3198
sg1127
I2845
sg148
I3004
sg2565
I3645
sg2566
I3663
sg3510
I2912
sg387
I1116
sg2567
I1558
sg568
I1121
sg1527
I2996
sg1531
I1111
sg3154
I3345
sg2569
I842
sg2435
I338
sg1538
I455
sg2571
I889
sg2572
I2558
sg2573
I1805
sg1497
I328
sg2575
I2742
sg2576
I1861
sg458
I1901
sg1129
I1862
sg2579
I2427
sg2580
I2367
sg2581
I2737
sg2582
I2741
sg2268
I3027
sg2584
I1353
sg1130
I2948
sg1797
I3119
sg2586
I686
sg2588
I1180
sg1604
I1203
sg381
I2253
sg2589
I706
sg2590
I3368
sg2591
I2577
sg1131
I1633
sg569
I3220
sg2592
I3281
sg513
I3102
sg2593
I3209
sg2594
I3169
sg749
I2329
sg1132
I473
sg2595
I864
sg1645
I436
sg294
I2325
sg2596
I2613
sg750
I3225
sg2597
I2517
sg1134
I691
sg130
I3621
sg514
I878
sg751
I3092
sg1135
I2659
sg2599
I631
sg2600
I3144
sg752
I3138
sg2601
I3107
sg1683
I1285
sg2603
I1028
sg1994
I2040
sg2605
I769
sg2606
I716
sg202
I2718
sg2608
I3732
sg2609
I197
sg2610
I1427
sg1964
I3453
sg343
I1287
sg2611
I263
sg1137
I1891
sg767
I2109
sg570
I1570
sg622
I3619
sg1138
I3355
sg987
I3133
sg2615
I3391
sg2616
I2467
sg753
I3113
sg2617
I1114
sg990
I2190
sg2619
I658
sg2620
I702
sg2622
I1632
sg1139
I1896
sg1362
I2245
sg128
I3287
sg1996
I1197
sg2624
I119
sg3066
I3640
sg571
I2380
sg2626
I3383
sg2627
I2545
sg950
I1108
sg2630
I3494
sg2631
I3128
sg1141
I1612
sg2632
I61
sg2633
I1969
sg2634
I793
sg2758
I1937
sg2635
I2026
sg2636
I124
sg2637
I3084
sg754
I1374
sg2638
I3477
sg572
I1086
sg2639
I2498
sg2640
I1095
sg2001
I1766
sg2641
I3175
sg2642
I1252
sg2643
I1372
sg2644
I3180
sg2645
I2052
sg110
I2099
sg2393
I3292
sg1142
I879
sg2022
I865
sg1961
I1195
sg2646
I606
sg1095
I395
sg1143
I1078
sg1144
I1191
sg49
I77
sg459
I3083
sg460
I442
sg461
I1757
sg21
I1595
sg295
I933
sg1145
I1337
sg756
I2195
sg2649
I3353
sg1146
I1569
sg2650
I3401
sg993
I2596
sg462
I861
sg3394
I549
sg2653
I3424
sg2654
I848
sg2655
I1950
sg463
I2184
sg2656
I851
sg2657
I177
sg757
I1809
sg2658
I833
sg2659
I2451
sg2660
I1963
sg2661
I846
sg1147
I1517
sg758
I276
sg2662
I2365
sg2663
I2443
sg1148
I1699
sg1090
I1661
sg2664
I2834
sg2764
I3223
sg2666
I2511
sg2667
I1613
sg2668
I1644
sg1017
I665
sg2670
I3636
sg2671
I80
sg1149
I2759
sg1205
I2896
sg573
I741
sg2672
I628
sg2673
I2813
sg296
I2575
sg2674
I3018
sg2675
I423
sg1168
I114
sg2676
I2194
sg492
I3434
sg2677
I1333
sg2678
I2420
sg3009
I2441
sg2679
I3379
sg182
I2231
sg2170
I1280
sg2680
I3052
sg1151
I57
sg2183
I1057
sg1091
I2311
sg2682
I24
sg1152
I2411
sg198
I354
sg151
I666
sg2209
I1157
sg2216
I519
sg2685
I3538
sS'a'
I23
sg2233
I1392
sg2687
I2306
sg2688
I12
sg2009
I2037
sg1153
I642
sg2690
I190
sg2691
I2283
sg2692
I3068
sg2693
I855
sg3728
I1675
sg2694
I1011
sg1154
I2826
sg2696
I239
sg1155
I2423
sg575
I953
sg52
I3240
sg2697
I2377
sg2698
I2667
sg2699
I1003
sg389
I1496
sg33
I926
sg2700
I3056
sg2701
I1053
sg761
I2997
sg2703
I1492
sg2704
I184
sg2705
I467
sg448
I947
sg723
I2891
sg464
I1493
sg762
I1849
sg2708
I2020
sg3380
I1775
sg2709
I163
sg346
I2468
sg2710
I1857
sg2711
I1791
sg2448
I2297
sg1163
I3203
sg234
I2036
sg2715
I599
sg2716
I544
sg136
I1369
sg2377
I2646
sg258
I3714
sg451
I1226
sg2717
I170
sg2718
I1947
sg577
I3696
sg1094
I3433
sg2721
I550
sg2722
I3725
sg763
I1230
sg2723
I2135
sg2724
I1097
sg214
I106
sg2726
I2149
sg2386
I2305
sg1156
I342
sg1157
I166
sg1158
I2986
sg2727
I3095
sg2387
I3625
sg1159
I674
sg283
I885
sg764
I1248
sg2730
I3147
sg660
I2017
sg2731
I1490
sg2288
I3571
sg765
I1066
sg204
I131
sg2389
I3390
sg2733
I1312
sg2999
I651
sg2734
I1042
sg129
I1460
sg2735
I3303
sg487
I445
sg691
I1424
sg2738
I1186
sg2739
I314
sg235
I2589
sg2740
I1212
sg580
I2503
sg1119
I87
sg1160
I334
sg2742
I1228
sg2743
I502
sg1121
I2176
sg2744
I1621
sg1204
I2334
sg2746
I47
sg2747
I1510
sg766
I3255
sg2748
I2491
sg2749
I863
sg2750
I2273
sg2583
I2733
sg162
I171
sg3000
I2077
sg1161
I874
sg1162
I257
sg2752
I899
sg682
I1267
sg388
I1240
sg2753
I1926
sg2754
I2067
sg768
I2542
sg1164
I2592
sg2755
I250
sg2756
I1965
sg2757
I2007
sg259
I630
sg266
I168
sg769
I3200
sg731
I3565
sg2759
I255
sg2760
I252
sg770
I14
sg2761
I478
sg2763
I2510
sg1617
I2063
sg31
I2972
sg1167
I3700
sg2741
I2466
sg1150
I46
sg2765
I1764
sg2766
I3278
sg2767
I192
sg2768
I1484
sg2769
I3293
sg1024
I2725
sg2770
I1941
sg1169
I2804
sg2771
I2470
sg88
I1138
sg2772
I2614
sg2773
I297
sg2774
I1753
sg771
I2215
sg491
I1282
sg347
I928
sg2775
I710
sg2776
I1759
sg2777
I1059
sg2778
I2058
sg772
I1535
sg675
I1422
sg2780
I1478
sg1171
I1691
sg2781
I2697
sg2505
I196
sg2782
I792
sg581
I1810
sg1360
I1875
sg773
I934
sg1174
I2302
sg2783
I1448
sg2784
I1601
sg2785
I2326
sg2786
I1411
sg2787
I1756
sg1768
I1976
sg465
I1585
sg2788
I3170
sg1176
I3096
sg100
I3336
sg1177
I78
sg1073
I2520
sg2791
I1925
sg2792
I2318
sg2793
I2767
sg153
I1596
sg582
I1951
sg467
I2321
sg1178
I1701
sg373
I3656
sg1179
I913
sg671
I2551
sg73
I2225
sg137
I293
sg774
I1383
sg2795
I527
sg2796
I2220
sg297
I1742
sg2797
I1739
sS'b'
I207
sg2798
I1741
sg468
I940
sg775
I813
sg2799
I1409
sg2800
I2966
sg2882
I3116
sg2802
I430
sg2803
I3057
sg3120
I3692
sg583
I3148
sg1201
I2967
sg1644
I2051
sg3584
I3560
sg3063
I2892
sg163
I3162
sg2805
I3466
sg2806
I2276
sg3190
I2421
sg2807
I189
sg1721
I3072
sg3586
I1251
sg2809
I2879
sg260
I2205
sg2811
I2632
sg1182
I2250
sg2812
I2258
sg584
I2803
sg1306
I1833
sg469
I2181
sg2814
I811
sg684
I3373
sg1183
I2802
sg2816
I727
sg2817
I1865
sg2818
I105
sg3662
I3045
sg1920
I462
sg2396
I3478
sg2822
I2962
sg2823
I411
sg2825
I1919
sg1239
I914
sg348
I2417
sg2826
I1357
sg3238
I2391
sg3590
I3418
sg2876
I420
sg2828
I572
sg349
I2102
sg2137
I3234
sg2529
I2035
sg138
I5
sg776
I2206
sg2829
I1931
sg2830
I1297
sg2027
I3060
sg566
I3354
sg2831
I1929
sg2832
I2049
sg1186
I622
sg351
I2990
sg2833
I744
sg2834
I246
sg2835
I2609
sg2836
I621
sg2837
I2203
sg2838
I1515
sg648
I3256
sg3156
I1591
sg894
I2991
sg201
I1363
sg560
I3136
sg2842
I1658
sg2843
I2820
sg2844
I1555
sg2845
I1225
sg390
I1173
sg171
I1172
sg2846
I989
sg299
I1713
sg2847
I1148
sg2848
I2769
sg1364
I1825
sg3199
I2704
sg1543
I3081
sg2850
I3550
sg1601
I685
sg2852
I900
sg1188
I1514
sg94
I1516
sg164
I1518
sg2035
I1257
sg2854
I3374
sg2986
I1996
sg2857
I3736
sg1967
I2952
sg778
I3366
sg2858
I1560
sg3297
I1110
sg587
I1143
sg1180
I1408
sg1190
I2641
sg2859
I251
sg1289
I3599
sg2860
I993
sg70
I1511
sg2861
I2642
sg2862
I89
sg2863
I2532
sg1191
I1041
sg2865
I6
sg1192
I2937
sg2866
I2357
sg1193
I669
sg2867
I1379
sg2868
I944
sg2869
I2221
sg2870
I2674
sg1194
I1044
sg588
I3682
sg779
I1628
sg780
I249
sg589
I2821
sg2872
I790
sg2873
I875
sg2874
I3291
sg1705
I860
sg1195
I2651
sg470
I2824
sg2877
I656
sg55
I2794
sg2879
I987
sg119
I154
sg1196
I3221
sg590
I633
sg2880
I156
sg2881
I2801
sg3119
I2144
sg2801
I3731
sS'#'
I0
sg2883
I3279
sg2884
I1112
sg1638
I2016
sg3438
I2120
sg2886
I3664
sg301
I2422
sg2887
I852
sg2888
I969
sg591
I3653
sg1198
I3648
sg261
I2495
sg592
I558
sg2890
I2402
sg2891
I2059
sg1199
I3290
sg1835
I2272
sg2551
I3674
sg2893
I2777
sg2894
I1921
sg1398
I394
sS'c'
I491
sg302
I1790
sg2895
I2649
sg782
I3669
sg1202
I245
sg2897
I2285
sg593
I1235
sg2898
I689
sg237
I1824
sg2732
I3672
sg1203
I129
sg2899
I1243
sg3134
I1784
sg3583
I2687
sg3103
I1983
sg2901
I1873
sg2902
I3569
sg2903
I1681
sg2904
I1940
sg618
I978
sg3609
I262
sg594
I3161
sg608
I2266
sg2906
I2951
sg2907
I94
sg595
I3586
sg1206
I1534
sg2908
I810
sg3619
I809
sg2910
I2897
sg1207
I607
sg3627
I1052
sg2913
I3288
sg1208
I299
sg2914
I1436
sg783
I2516
sg2915
I672
sg784
I873
sg2917
I1021
sg2918
I1343
sg2919
I982
sg2911
I2640
sg2921
I3201
sg2922
I1520
sg2923
I2340
sg2924
I2791
sg269
I806
sg2926
I1939
sg2927
I655
sg2928
I429
sg2929
I2378
sg2930
I2002
sg2931
I3608
sg1211
I1031
sg1212
I2430
sg2932
I408
sg785
I1765
sg786
I559
sg1213
I1178
sg236
I3584
sg1367
I3582
sg86
I2168
sg471
I1023
sg303
I1868
sg2937
I2633
sg2938
I2681
sg2939
I1247
sg271
I1291
sg2941
I3410
sg1214
I1293
sg2055
I366
sg152
I2899
sg662
I3185
sg2942
I1277
sg391
I3098
sg633
I319
sg2944
I72
sg1172
I3414
sg2945
I1381
sg2946
I720
sg2947
I2293
sg596
I3596
sg2948
I2949
sg392
I1288
sg2949
I1745
sg2950
I2066
sg2951
I2895
sg787
I1423
sg597
I2294
sg179
I2585
sg1217
I2458
sg692
I3592
sg2953
I2114
sg1218
I2121
sg1934
I2670
sg2955
I3510
sg1219
I2584
sg1508
I221
sg2957
I1254
sg2958
I573
sg2959
I1292
sg2960
I2854
sg2961
I601
sg2962
I2360
sg2963
I1360
sg454
I2583
sg2965
I849
sg3185
I1387
sg2967
I1241
sg2968
I2090
sg1220
I826
sg2060
I611
sg2969
I17
sg1221
I1136
sg393
I3462
sg1222
I1799
sg889
I1126
sg1223
I2960
sg1224
I894
sg1225
I1725
sg1582
I1610
sg2971
I2301
sg2972
I1823
sg1226
I3709
sg394
I1215
sg2973
I2081
sg2974
I1831
sg1600
I162
sg2975
I2527
sg1228
I2738
sg1448
I562
sg2977
I2597
sg362
I2726
sg3225
I2827
sg2978
I1174
sg1229
I2234
sg1230
I2714
sg1348
I3691
sg2980
I2366
sg599
I1412
sg2983
I3733
sg2984
I3164
sg2422
I3357
sg1231
I3022
sg2987
I159
sg2988
I2476
sg360
I3264
sg2990
I2566
sg2991
I582
sg1656
I2970
sg2994
I2539
sg890
I1368
sg2995
I1185
sg2996
I1982
sg2997
I63
sg1232
I2490
sg3076
I2426
sg368
I784
sg2494
I3688
sg2628
I775
sg3001
I1465
sg1184
I2619
sg3002
I788
sg2426
I3471
sg3004
I242
sg3005
I2316
sg2427
I3121
sg1233
I770
sg3007
I1542
sg2819
I3155
sg1791
I2361
sg1534
I3323
sg1234
I772
sg3010
I451
sg262
I318
sg600
I739
sg1235
I3282
sg304
I1298
sg790
I326
sg1330
I3313
sg3011
I3630
sg791
I2502
sg1236
I1752
sg3012
I2703
sS'd'
I791
sg3013
I236
sg535
I2874
sg1870
I1341
sg1237
I654
sg3015
I164
sg3016
I2186
sg1238
I773
sg1054
I402
sg3018
I904
sg3231
I2494
sg1240
I1009
sg3021
I2312
sg2096
I417
sg472
I1284
sg792
I1356
sg789
I194
sg1008
I3134
sg74
I2982
sg56
I212
sg3025
I403
sg1241
I3446
sg1944
I1704
sg793
I2057
sg3027
I3449
sg3028
I2841
sg1242
I3375
sg102
I1955
sg3029
I2574
sg3030
I3573
sg3032
I2201
sg664
I3274
sg3035
I2257
sg3036
I2352
sg2585
I2000
sg1243
I2348
sg3040
I288
sg3041
I371
sg3042
I1788
sg2457
I3498
sg3044
I2969
sg2478
I1198
sg2411
I2914
sg1000
I1010
sg3045
I2677
sg1244
I795
sg3046
I265
sg216
I1283
sg2036
I365
sg1284
I3461
sg3049
I332
sg3050
I3741
sg3051
I1679
sg601
I3078
sg3052
I174
sg3053
I2213
sg3054
I2743
sg1245
I279
sg46
I1272
sg3055
I3174
sg3284
I1261
sg3057
I3559
sg794
I2850
sg353
I1099
sg3058
I1666
sg1246
I140
sg3059
I414
sg240
I1893
sg3060
I3387
sg3061
I2999
sg1247
I2562
sg3062
I315
sg183
I325
sg350
I3694
sg84
I3526
sg442
I351
sg1185
I2410
sg3065
I629
sg1248
I1386
sg1249
I3224
sg395
I1641
sg3168
I2964
sg1250
I2196
sg473
I2083
sg50
I2175
sg3067
I2954
sg795
I614
sg3068
I958
sg2621
I2409
sg3070
I1817
sg3071
I2691
sg3072
I2953
sg1251
I3097
sg3074
I1019
sg3567
I1109
sg2203
I2538
sg3078
I2963
sg1052
I1119
sg3079
I3135
sg2970
I509
sg2296
I1400
sg3080
I3137
sg1253
I1502
sg1374
I2760
sg3082
I763
sg3083
I1512
sg3084
I2455
sg3085
I1275
sg3086
I485
sg1254
I2330
sg3087
I1330
sg2269
I410
sg3089
I1439
sg3430
I1106
sg3091
I2904
sg1255
I1854
sg1873
I3188
sg3031
I393
sg1256
I3643
sg3093
I610
sg3094
I3023
sg3095
I2242
sg3096
I3005
sg18
I3456
sg95
I3459
sg3097
I3436
sg1257
I3437
sg306
I3431
sg3098
I531
sg796
I1092
sg3100
I1268
sg1258
I504
sg2340
I692
sS'm'
I1923
sg3102
I1623
sg1260
I1104
sg3105
I2084
sg3106
I776
sg3107
I3352
sg3108
I2154
sg3109
I574
sg3111
I3683
sg318
I3659
sg3112
I3500
sg3113
I726
sg3114
I426
sg3115
I2552
sg3116
I821
sg474
I2137
sg397
I2341
sg3117
I1131
sg3118
I215
sg797
I637
sg2720
I202
sg515
I2634
sg3121
I3069
sg3122
I3317
sg3123
I990
sg3124
I1987
sg3125
I1574
sg1261
I1956
sg1262
I2171
sg3126
I952
sg3127
I1142
sg3128
I2643
sg2445
I3505
sg3131
I213
sg3132
I950
sg3135
I1751
sg3137
I2887
sg3138
I2868
sg2712
I2400
sg798
I69
sg1263
I1783
sS'e'
I997
sg2504
I705
sg3141
I760
sg3142
I67
sg3143
I1531
sg1264
I339
sg3144
I54
sg3145
I1153
sg3146
I2922
sg3147
I2977
sg3148
I313
sg1265
I939
sg1266
I1264
sg3149
I233
sg799
I1589
sg1267
I1470
sg398
I2238
sg3150
I1964
sg1679
I3562
sg603
I1447
sg1268
I644
sg3152
I95
sg3153
I3371
sg2568
I1434
sg777
I3429
sg604
I1301
sg47
I1350
sg800
I1375
sg1269
I961
sg3157
I1432
sg3158
I1717
sg3159
I2798
sg3160
I1346
sg3161
I130
sg3162
I1586
sg354
I3726
sg3163
I2805
sg3164
I1785
sg1107
I458
sg3166
I1122
sg3167
I808
sg3447
I2808
sg3169
I1296
sg2905
I2549
sg1681
I2561
sg3170
I1622
sg1080
I2274
sg3171
I1326
sg802
I2652
sg3172
I3546
sg3173
I3037
sg3174
I1957
sg3175
I41
sg3639
I2198
sg475
I3216
sg1271
I1930
sg1636
I2653
sg3178
I2524
sg3180
I3307
sg3181
I1540
sg3182
I1936
sg3183
I1227
sg1287
I1318
sg1272
I659
sg3186
I1156
sg605
I3394
sg825
I1970
sg1273
I2548
sg3401
I2547
sg629
I827
sg3187
I1697
sg1274
I3721
sg2451
I341
sg712
I3729
sg1275
I2893
sg1276
I1708
sg803
I3724
sg1277
I385
sg3189
I2381
sg1689
I2161
sg1278
I2223
sg3191
I625
sg3192
I858
sg2456
I2916
sg1315
I3006
sg3038
I1700
sg3193
I3595
sg3194
I589
sg3195
I134
sg3196
I1335
sg3197
I2399
sg3198
I34
sg606
I1815
sg607
I548
sg2528
I2337
sS't'
I3171
sg3200
I2756
sg3188
I2569
sg477
I322
sg3201
I1058
sg3202
I3262
sg264
I370
sg1691
I2837
sg3204
I1818
sg3205
I1819
sg3206
I867
sg3207
I340
sg3208
I668
sg1280
I2521
sg3209
I1161
sg3210
I2183
sg3211
I1935
sg2144
I481
sg51
I1827
sg3212
I2903
sg735
I1946
sg1481
I2825
sg3213
I514
sg3214
I1731
sg2934
I3469
sg478
I1403
sg1650
I2796
sg3216
I2025
sg2577
I3322
sg2283
I2027
sg3218
I2776
sg3219
I2130
sg3220
I1816
sg3221
I568
sg3222
I2662
sg3223
I1214
sg3224
I627
sg2034
I2723
sg804
I1944
sg3226
I1943
sg1282
I3618
sg2849
I3678
sg1684
I2450
sg142
I1483
sg3228
I1234
sg805
I3626
sg440
I754
sg3229
I2493
sg3230
I3457
sg3019
I1853
sg3232
I983
sg3260
I2333
sg3234
I1659
sg3048
I1135
sg862
I749
sg399
I577
sg3236
I3460
sg3237
I2622
sg1285
I587
sg609
I753
sg479
I2170
sg400
I1155
sg1252
I945
sg3240
I1660
sg1415
I1467
sg480
I3054
sg256
I3066
sg3242
I3347
sg3243
I3001
sg3244
I3512
sg3245
I624
sg1286
I208
sg2851
I2484
sg3247
I2452
sg3248
I2909
sg3249
I3359
sg155
I210
sg3250
I2573
sg3251
I1606
sg3252
I3413
sg156
I1509
sg19
I3271
sg2789
I556
sg2466
I3207
sg1019
I3310
sg217
I2460
sg3253
I765
sg3254
I2240
sg3255
I959
sg14
I2224
sg610
I2001
sg3258
I2509
sg611
I697
sg3233
I1723
sg3261
I303
sg612
I3269
sg3262
I2414
sg3263
I2572
sg1290
I1879
sg3264
I1878
sg3265
I305
sg3266
I963
sg3267
I2387
sg1288
I1050
sg308
I3497
sg3268
I175
sg2856
I301
sg3269
I3172
sg1020
I3008
sg3271
I555
sg3273
I3187
sg3653
I2179
sg3274
I2565
sg1291
I2906
sg1296
I1782
sg401
I3490
sg2855
I2358
sg3314
I2883
sg929
I2795
sg3276
I127
sg3277
I1556
sg3278
I2929
sg3279
I1635
sg1294
I2898
sg2736
I1850
sg3281
I2499
sg3282
I734
sg3283
I353
sg277
I3093
sg562
I45
sg3286
I962
sg3287
I3301
sg3288
I1117
sg1112
I3065
sg2030
I2519
sg218
I2987
sg3291
I352
sg1109
I3702
sg3293
I247
sg3294
I799
sg1295
I191
sg3295
I2588
sg3296
I783
sg1189
I3254
sg203
I1840
sg184
I2910
sg1297
I1856
sg3407
I1960
sg3415
I1855
sg251
I3516
sg1298
I97
sg3300
I99
sg3301
I733
sg3302
I3652
sg1292
I2913
sg3456
I3058
sg3305
I1488
sg3306
I2388
sg402
I2119
sg3307
I3432
sg3308
I2024
sg3658
I2404
sg2570
I3300
sg3309
I768
sg3310
I2013
sg3311
I991
sg1300
I2146
sg1301
I471
sg613
I2353
sg813
I3075
sg3289
I1370
sg482
I1772
sg3312
I1872
sg807
I1871
sg3313
I1340
sg3315
I3623
sg3316
I603
sg2307
I3698
sg3318
I801
sg1302
I750
sg3319
I3341
sg3569
I1237
sg808
I3020
sg3321
I1846
sg3322
I3532
sg3323
I823
sg3324
I787
sg404
I1744
sg3598
I110
sg3599
I1199
sg3325
I499
sg106
I828
sg3326
I1977
sg3327
I3285
sg3621
I1133
sg495
I3423
sg3329
I898
sg1304
I2940
sg3331
I2354
sg3332
I3361
sg3129
I3048
sg3663
I2505
sg1305
I321
sg3334
I2831
sg3335
I1048
sg3336
I1339
sg3337
I304
sg3671
I470
sg2483
I2322
sg3339
I2501
sg1308
I2974
sg3340
I383
sg3342
I814
sg78
I2268
sg3343
I3160
sg3345
I3076
sg3346
I3015
sg34
I2270
sg3347
I1980
sg3348
I387
sg3349
I3416
sg579
I1571
sg1309
I2628
sg3290
I3676
sg3350
I3483
sg3352
I3587
sg310
I540
sg892
I2515
sg3353
I1978
sg810
I2881
sg3024
I3272
sg355
I919
sg3354
I3227
sg811
I2080
sg673
I3100
sg1311
I2617
sg3355
I2612
sg173
I2536
sg1464
I3468
sg3357
I3219
sg3358
I2540
sg2486
I18
sg3359
I2631
sg3360
I575
sg1312
I2449
sg3361
I3655
sg1313
I2761
sg2211
I3737
sg868
I217
sg3363
I3693
sS'g'
I1295
sg3365
I796
sg1647
I859
sg115
I729
sg3367
I678
sg170
I2530
sg3139
I1132
sg3368
I700
sg1025
I1663
sg3371
I557
sg1314
I3422
sg1529
I128
sg812
I362
sg3373
I151
sg3374
I687
sg3375
I1654
sg3376
I2291
sg311
I1690
sg3377
I3704
sg915
I3558
sg63
I327
sg3378
I3475
sg3379
I2856
sg1514
I916
sg3381
I1096
sg1316
I995
sg3382
I374
sg1317
I33
sg344
I935
sg3384
I2615
sg2956
I181
sg1318
I182
sg3385
I2814
sg2875
I1638
sg3386
I3671
sg2745
I2648
sg3388
I1684
sg3389
I2217
sg3390
I372
sg3677
I270
sg3392
I1949
sg1652
I1309
sg2179
I419
sg3393
I2870
sg1319
I2157
sg1320
I2724
sg2652
I3259
sg3395
I1354
sg3396
I1503
sg3397
I3637
sg267
I2623
sg3073
I1513
sg814
I1903
sg815
I1781
sg1321
I300
sg3398
I1920
sg3399
I2660
sg1322
I280
sg1736
I349
sg816
I1906
sg3402
I1196
sg2909
I2362
sg356
I309
sg847
I222
sg3404
I3499
sg3406
I699
sg1323
I782
sg3298
I2678
sg3408
I1128
sg2358
I1441
sg89
I1468
sg3410
I2541
sg71
I2155
sg3411
I145
sg3412
I623
sg1816
I2778
sg1819
I258
sg3414
I60
sg483
I3568
sg3299
I2768
sg3416
I2030
sg3417
I774
sg406
I2031
sg3419
I25
sg703
I3165
sg3420
I1538
sg1324
I2064
sg3421
I662
sg1293
I3257
sg1382
I477
sg1860
I2393
sg1326
I173
sg1856
I2692
sg1869
I722
sg3426
I1702
sg1327
I3451
sg3427
I758
sg3020
I3485
sg3428
I3306
sg3429
I612
sg3431
I748
sg705
I3186
sg2419
I3082
sg3433
I2730
sg1972
I619
sg3434
I1652
sg186
I1847
sg3435
I949
sg139
I2189
sg3436
I3114
sg3437
I901
sg357
I1089
sg620
I1718
sg485
I3722
sg167
I3183
sg2885
I2384
sg3439
I427
sg3440
I1620
sg420
I200
sg486
I1090
sg1985
I1190
sg1329
I3205
sg3443
I1747
sg3444
I3542
sg3445
I561
sg3446
I476
sg586
I2907
sg165
I3541
sg819
I437
sg3449
I2789
sg3450
I2477
sg3451
I932
sg3369
I591
sg3453
I818
sg3454
I2688
sg3455
I839
sg1914
I2849
sg53
I2239
sg3457
I486
sg1549
I2846
sg3458
I1677
sg1884
I1583
sg820
I1676
sg3459
I2280
sg3460
I505
sg3461
I1672
sg2472
I1844
sg3462
I1822
sg3463
I3730
sg3464
I1762
sg3465
I2379
sg3466
I1452
sg3467
I1877
sg268
I1552
sg3469
I1995
sg3470
I946
sg1331
I1450
sg3471
I1864
sg538
I1994
sg312
I272
sg3472
I1107
sg2119
I937
sg3474
I1913
sg3475
I269
sg3476
I474
sg3477
I2078
sg823
I3657
sg3478
I2349
sg2135
I2068
sg3480
I2327
sg1834
I1037
sg3215
I1693
sg3482
I3140
sg3023
I740
sg2434
I1396
sg1332
I2567
sg3484
I3197
sg3485
I506
sg3501
I931
sg3486
I3120
sg44
I2838
sg1379
I3157
sg2189
I2015
sg403
I3649
sg489
I1382
sg3488
I1189
sg826
I2472
sg2210
I2218
sg1333
I2471
sg22
I3552
sg3490
I1262
sg3491
I1
sg3492
I967
sg1088
I2936
sg2976
I3051
sg3493
I2295
sg1334
I3563
sg3494
I634
sg2077
I3376
sg3495
I3633
sg3496
I942
sg3497
I2345
sg1335
I2600
sg827
I3181
sg3498
I1068
sg3499
I3295
sg3502
I2543
sg3275
I3632
sg3503
I2403
sg1336
I3017
sg1337
I400
sg3504
I2339
sg3505
I1038
sg1338
I1705
sg828
I850
sg3507
I1639
sg3696
I2890
sg1339
I1694
sg614
I1802
sg3508
I1696
sg3509
I3036
sg1340
I1163
sg2136
I2438
sg3512
I2475
sg1748
I2136
sg3514
I483
sg2352
I3064
sg3516
I3318
sg1341
I1519
sg3517
I1029
sg1342
I977
sg3518
I1852
sg3519
I3384
sg2364
I525
sg2367
I2396
sg1343
I3182
sg3522
I135
sg3523
I2602
sg2376
I974
sg3525
I367
sg1344
I55
sg3526
I3153
sg3527
I2373
sg3528
I1974
sg2402
I53
sg3531
I3327
sg1346
I3523
sg1103
I543
sg3532
I2595
sg830
I1794
sg916
I2169
sg3533
I2639
sg3534
I2928
sg3535
I20
sg3536
I3624
sg832
I2544
sg3537
I3606
sg502
I2790
sg2618
I3122
sg3424
I48
sg1347
I3689
sg307
I951
sg2871
I1743
sg3538
I2599
sg3539
I2434
sg1104
I3266
sg2499
I2104
sg2514
I82
sg315
I1736
sg3540
I1469
sg3541
I3143
sg917
I709
sg1351
I2229
sg3542
I492
sg2516
I2729
sg3544
I1761
sg3545
I1521
sg3546
I1176
sg3547
I1728
sg290
I121
sg1352
I2481
sg1353
I2461
sg3549
I2364
sg1038
I1938
sg1699
I2672
sg3550
I1444
sg3551
I2408
sg3552
I1539
sg3553
I3398
sg2598
I1414
sg1354
I1421
sg3554
I1645
sg1754
I1127
sg2613
I2668
sg1039
I1456
sg3556
I153
sg3557
I1979
sg2519
I2412
sg407
I1780
sg3558
I3400
sg3559
I1917
sg3560
I3034
sg2729
I3407
sg1356
I3294
sg2522
I2344
sg3562
I3611
sg3563
I2193
sg3564
I2563
sg3565
I3195
sg3566
I1413
sg1756
I3438
sg565
I2162
sg3320
I803
sg24
I3589
sg1357
I3099
sg3570
I30
sg3571
I3443
sg313
I2323
sg1358
I1317
sg3572
I3447
sg3573
I357
sg144
I226
sg3574
I2579
sg127
I65
sg3576
I943
sg3577
I2478
sg408
I960
sg836
I271
sg837
I3035
sg1170
I994
sg1359
I2694
sg3579
I3043
sg1173
I653
sg3580
I396
sg1361
I871
sg1750
I1954
sg3581
I2487
sg2794
I167
sg3246
I2943
sg3582
I2603
sS'i'
I1592
sg215
I3609
sg3099
I2635
sg238
I3574
sg1181
I1165
sg3587
I3316
sg314
I3275
sg3588
I2666
sg3589
I2252
sg3707
I718
sg3591
I2811
sg3383
I988
sg3592
I188
sg3593
I1391
sg3594
I302
sg3595
I641
sg3596
I2173
sg1046
I1201
sg838
I2082
sg3597
I2875
sg265
I1451
sg326
I1426
sg615
I1273
sg3600
I261
sg3601
I2061
sg3602
I907
sg1365
I2788
sg443
I3701
sg1366
I1459
sg3603
I3021
sg3604
I815
sg3605
I3319
sg3606
I3302
sg1259
I295
sg3608
I2927
sg2737
I3408
sg1618
I1200
sg2443
I2594
sg1210
I2172
sg2935
I747
sg3610
I2919
sg624
I1726
sg3611
I3631
sg1368
I1123
sg1369
I1380
sg3612
I2389
sg1459
I3502
sg1397
I2973
sg1370
I2708
sg1371
I1188
sg23
I1754
sg3614
I2553
sg839
I2482
sg3615
I2942
sg3616
I3605
sg3
I3720
sg1373
I1149
sg3217
I3580
sg13
I1845
sg239
I1897
sg3617
I515
sg3618
I457
sg625
I1894
sg358
I590
sg3713
I379
sg840
I2979
sg841
I1491
sg305
I278
sg3328
I3372
sg3081
I1231
sg3622
I3496
sg842
I91
sg843
I1440
sg3624
I1533
sg3625
I3614
sg316
I1537
sg2912
I2680
sg3628
I1458
sg3133
I1054
sg3629
I1806
sg410
I1803
sg626
I1319
sg3630
I439
sg3631
I1808
sg1376
I2050
sg3632
I2853
sg3634
I3176
sg493
I915
sg3635
I2328
sg3636
I1973
sg3637
I2281
sg3638
I2779
sg3176
I392
sg3640
I554
sg3641
I853
sg616
I3393
sg2539
I2342
sg1377
I2483
sg1378
I1562
sg3644
I2004
sg2820
I2740
sg187
I3070
sg3646
I1508
sg627
I3286
sg124
I28
sg3647
I1837
sg3648
I529
sg172
I3661
sg494
I1320
sg3649
I1260
sg3257
I324
sg3651
I2862
sg3652
I560
sg995
I1763
sg1775
I605
sg3695
I345
sg952
I3042
sg3655
I1637
sg844
I3331
sg1380
I3163
sg3657
I461
sg309
I2290
sg3659
I3620
sg845
I2288
sg411
I2529
sg2258
I2164
sg3661
I2976
sg1303
I1420
sg3330
I2867
sg3333
I450
sg3664
I1706
sg659
I3333
sg3665
I2018
sg1776
I2249
sg846
I3474
sg3364
I1017
sg3668
I2720
sg3669
I3030
sg3670
I3039
sg2150
I3178
sg1307
I920
sg3672
I39
sg249
I2126
sg3673
I2534
sg3674
I1626
sg2925
I3411
sg2355
I1244
sg3017
I1631
sg3676
I3339
sg3403
I1289
sg496
I488
sg3678
I2199
sg359
I1597
sg3422
I1290
sg3679
I649
sg270
I329
sg37
I482
sg3680
I1051
sg3681
I3735
sg3442
I1352
sg3682
I469
sg1383
I3049
sg412
I1008
sg35
I1471
sg3685
I732
sg116
I1933
sg3686
I3634
sg3687
I1344
sg848
I3593
sg3688
I812
sS'j'
I1662
sg849
I1204
sg3689
I1730
sg3690
I440
sg3691
I767
sg3692
I703
sg3693
I1851
sg3694
I3644
sg829
I500
sg3697
I3439
sg850
I2496
sg1384
I2386
sg1385
I2055
sg3698
I3739
sg3699
I3149
sg1386
I586
sg340
I1972
sg3701
I2385
sg3702
I3419
sg851
I275
sg3703
I2606
sg3704
I2284
sg3705
I240
sg1387
I1194
sg2998
I3299
sg3706
I1619
sg1388
I3452
sg2218
I956
sg3708
I616
sg3709
I1792
sg3710
I2762
sg1389
I382
sg1390
I3642
sg628
I2884
sg3711
I1393
sg166
I3723
sg3712
I2598
sg3620
I957
sg3714
I1711
sg3715
I2629
sg852
I3062
sg3716
I2087
sg3717
I2256
sg1391
I998
sg945
I3236
sg1452
I2611
sg3718
I2610
sg3719
I1221
sg1392
I1740
sg3720
I2847
sg3721
I2866
sg497
I1269
sg3722
I923
sg853
I1322
sS"'"
I3
sg195
I1474
sg1784
I648
sg1393
I2713
sg3724
I1303
sg3725
I1084
sg3726
I356
sg396
I3555
sg3727
I3445
sg2665
I965
sg3729
I1304
sg1438
I3489
s(lp3731
S'#'
ag3491
ag2239
aS"'"
ag177
ag138
ag2865
ag2394
ag72
ag1890
ag1788
ag1657
ag2688
ag1642
ag770
ag979
ag2089
ag2969
ag2486
ag333
ag3535
ag511
ag2462
aS'a'
ag2682
ag3419
ag1780
ag2104
ag124
ag859
ag3570
ag1465
ag2512
ag1317
ag3198
ag918
ag2329
ag3521
ag2538
ag3672
ag2480
ag3175
ag2108
ag2146
ag2312
ag562
ag1150
ag2746
ag3424
ag1580
ag1667
ag2629
ag2229
ag2402
ag3144
ag1344
ag2403
ag1151
ag2252
ag2086
ag3414
ag2632
ag704
ag2997
ag243
ag127
ag919
ag3142
ag2101
ag798
ag1115
ag1917
ag2944
ag964
ag3088
ag1794
ag523
ag49
ag1177
ag522
ag2671
ag1349
ag2514
ag1822
ag2460
ag3543
ag2171
ag1119
ag2324
ag2862
ag2409
ag842
ag17
ag2230
ag2907
ag3152
ag1474
ag1298
ag2556
ag3300
ag1631
ag436
ag2051
ag1606
ag341
ag2818
ag214
ag135
ag2000
ag1526
ag3598
ag2420
ag547
ag2172
ag1168
ag2208
ag2401
ag1113
ag1867
ag2624
ag3575
ag290
ag1065
ag1460
ag2636
ag4
ag1061
ag3276
ag1529
ag1203
ag3161
ag204
ag876
ag2106
ag3195
ag3522
ag1634
ag1062
ag878
ag1055
ag1246
ag1861
ag3341
ag2557
ag1905
ag3411
ag2864
ag1401
ag2300
ag1742
ag2518
ag3373
ag1858
ag3556
ag119
ag2262
ag2880
ag863
ag180
ag2987
ag2314
ag2098
ag1600
ag2709
ag3015
ag103
ag1157
ag2794
ag266
ag422
ag2717
ag162
ag1478
ag1326
ag3052
ag3268
ag54
ag2657
ag1593
ag1595
ag1942
ag2956
ag1318
ag1685
ag2704
ag1502
ag2140
ag985
ag3592
ag2807
ag2690
ag1295
ag2767
ag1567
ag789
ag1028
ag2505
ag2609
ag1067
ag623
ag420
ag1004
ag2720
ag2549
ag2076
ag122
ag2523
aS'b'
ag1286
ag1810
ag155
ag2385
ag56
ag3131
ag1542
ag3118
ag744
ag868
ag223
ag1718
ag912
ag1508
ag847
ag1690
ag2204
ag1406
ag144
ag1995
ag913
ag1674
ag2993
ag2878
ag1720
ag3149
ag953
ag245
ag3013
ag2015
ag885
ag2696
ag3705
ag911
ag3004
ag2028
ag1711
ag1202
ag2834
ag3293
ag2979
ag780
ag2755
ag2859
ag2760
ag1777
ag1774
ag2759
ag1615
ag1162
ag1819
ag1859
ag1773
ag3600
ag3609
ag2611
ag3155
ag3046
ag27
ag1513
ag2464
ag3475
ag3677
ag836
ag312
ag2013
ag2536
ag851
ag758
ag643
ag305
ag1245
ag1322
ag668
ag91
ag3666
ag923
ag1898
ag189
ag2259
ag3040
ag466
ag2964
ag2156
ag2725
ag137
ag1014
ag1259
ag2839
ag2773
ag934
ag1208
ag1321
ag2856
ag3594
ag3261
ag3337
ag3265
ag2333
ag1048
ag248
ag356
ag2762
ag244
ag724
ag3148
ag2739
ag3062
ag2375
ag1737
ag262
ag633
ag1623
ag1305
ag477
ag3370
ag3257
ag183
ag790
ag63
ag1497
ag270
ag1603
ag2473
ag3049
ag211
ag1160
ag3626
ag725
ag991
ag2435
ag1264
ag3207
ag2451
ag1156
ag2477
ag3317
ag3695
ag1725
ag2006
ag711
ag1736
ag2920
ag442
ag3291
ag3283
ag198
ag2065
ag3726
ag3573
ag1456
ag1901
ag3642
ag922
ag812
ag503
ag2256
ag2036
ag2055
ag3525
ag1863
ag559
ag264
ag3041
ag3390
ag1899
ag3382
ag1501
ag1563
ag1561
ag693
ag3713
ag2048
ag1440
ag1389
ag3340
ag2545
ag1277
ag1928
ag3348
ag2351
ag1881
ag527
ag3513
ag3176
ag3031
ag1398
ag1095
ag3580
ag524
ag429
ag2094
ag1337
ag3366
ag1054
ag3025
ag676
ag2176
ag2112
ag2058
ag2932
ag437
ag2269
ag2823
ag1758
ag2544
ag3059
ag706
ag714
ag2096
ag2020
ag2179
ag2876
ag653
ag2250
ag2675
ag1855
ag640
ag3114
ag3439
ag2160
ag2928
ag2802
ag899
ag2279
ag2465
ag2047
ag2056
ag1645
ag819
ag1458
ag3630
ag3690
ag1614
ag460
ag455
ag2374
ag487
ag2507
ag2444
ag505
ag759
ag3333
ag3010
ag1664
ag2062
ag742
ag1538
ag1111
ag3618
ag1107
ag1766
ag944
ag3657
ag1920
ag457
ag1120
ag833
ag2276
ag2705
ag2353
ag3682
ag3671
ag1301
ag874
ag1132
ag3476
ag528
ag3446
ag1382
ag2761
ag476
ag908
ag2144
ag37
ag3514
ag1824
ag3086
ag3457
ag1407
ag496
ag1744
ag83
aS'c'
ag3542
ag966
ag1733
ag1907
ag2097
ag2442
ag1682
ag3325
ag829
ag1477
ag2743
ag199
ag1258
ag3460
ag3485
ag1479
ag205
ag2970
ag1575
ag1468
ag40
ag82
ag3213
ag3617
ag1476
ag1075
ag3441
ag2216
ag1922
ag1857
ag2407
ag439
ag709
ag2364
ag2345
ag2795
ag3643
ag3648
ag1443
ag3098
ag3568
ag567
ag553
ag3037
ag2525
ag928
ag740
ag544
ag310
ag2550
ag2398
ag1103
ag2716
ag1605
ag1627
ag1817
ag607
ag3394
ag2721
ag996
ag2952
ag433
ag3640
ag3271
ag2789
ag3371
ag592
ag786
ag3652
ag3445
ag1448
ag1003
ag1457
ag1430
ag1463
ag2669
ag3221
ag1588
ag2840
ag2399
ag2828
ag2958
ag3109
ag3360
ag1815
ag399
ag1072
ag212
ag2214
ag2080
ag2991
ag2138
ag2198
ag2263
ag1386
ag1285
ag3270
ag3194
ag358
ag3369
ag369
ag3418
ag1123
ag322
ag1449
ag698
ag2815
ag2715
ag1002
ag2961
ag578
ag3316
ag2016
ag1775
ag2646
ag1207
ag2306
ag1345
ag3093
ag2060
ag3429
ag330
ag795
ag3400
ag3708
ag2295
ag2439
ag1972
ag2088
ag2836
ag1186
ag3412
ag3245
ag3191
ag1752
ag3224
ag2672
ag3065
ag259
ag2599
ag1439
ag590
ag3494
ag2145
ag856
ag797
ag2087
ag3654
ag518
ag3595
ag1153
ag272
ag1268
ag1680
ag1483
ag1056
ag1784
ag3679
ag284
ag2999
ag1507
ag1173
ag1237
ag2927
ag2877
ag551
ag2619
ag1272
ag1806
ag112
ag3421
ag550
ag1410
ag1017
ag151
ag1959
ag3208
ag1193
ag2475
ag1525
ag2915
ag2896
ag1159
ag1175
ag421
ag1686
ag3367
ag1761
ag1726
ag1987
ag1416
ag2255
ag2305
ag1601
ag2586
ag3374
ag2238
ag2898
ag1363
ag1134
ag2340
ag3633
ag2045
ag1696
ag2292
ag611
ag2222
ag3406
ag3368
ag3448
ag2620
ag3692
ag2053
ag2504
ag2589
ag228
ag1974
ag917
ag2775
ag2025
ag2235
ag1900
ag2713
ag1845
ag2606
ag941
ag3707
ag2181
ag2946
ag1428
ag1869
ag1517
ag1981
ag999
ag3113
ag2816
ag2192
ag115
ag549
ag335
ag3685
ag3301
ag3282
ag2126
ag1355
ag1472
ag2347
ag600
ag3023
ag573
ag1554
ag831
ag2833
ag896
ag961
ag2935
ag3431
ag862
ag1302
ag3667
ag895
ag609
ag440
ag2916
ag450
ag1945
ag3427
ag2206
ag3141
ag447
ag2487
ag3082
ag1070
ag3253
ag526
ag3691
ag3309
ag2605
ag1233
ag1778
ag1234
ag1238
ag3417
ag2628
ag3106
ag2285
ag2026
ag2479
ag2474
ag1209
ag1323
ag3296
ag368
ag2079
ag3555
ag3324
ag3002
ag1516
ag2872
aS'd'
ag2782
ag2634
ag1446
ag1244
ag3365
ag1728
ag2933
ag3294
ag432
ag3318
ag1982
ag3320
ag875
ag2647
ag269
ag687
ag3167
ag3619
ag2908
ag2814
ag3688
ag775
ag3342
ag3604
ag3006
ag384
ag3453
ag2423
ag2319
ag3116
ag2625
ag3323
ag2124
ag635
ag1220
ag629
ag106
ag363
ag2992
ag1708
ag2982
ag2658
ag280
ag1876
ag680
ag1279
ag1200
ag3455
ag2141
ag1927
ag2569
ag1283
ag1116
ag926
ag2661
ag1197
ag2654
ag2965
ag828
ag2656
ag2887
ag3641
ag2182
ag2693
ag1836
ag3425
ag3192
ag1647
ag1705
ag462
ag1482
ag2749
ag2595
ag2022
ag1853
ag3206
ag2537
ag2338
ag1064
ag1361
ag1821
ag784
ag1161
ag2873
ag517
ag1897
ag514
ag1142
ag2294
ag721
ag446
ag375
ag1018
ag283
ag1975
ag1973
ag980
ag2571
ag598
ag533
ag1453
ag2012
ag1224
ag2019
ag2412
ag1695
ag3329
ag2752
ag2852
ag3437
ag2193
ag2808
ag3018
ag2188
ag2511
ag3602
ag994
ag617
ag104
ag42
ag730
ag1179
ag1239
ag493
ag1514
ag1673
ag1626
ag355
ag1307
ag2440
ag292
ag3722
ag1941
ag904
ag33
ag1877
ag347
ag2095
ag2695
ag3501
ag3451
ag295
ag773
ag344
ag901
ag2119
ag3578
ag1265
ag468
ag2184
ag3496
ag3576
ag2868
ag1252
ag3470
ag448
ag66
ag3435
ag3132
ag307
ag3126
ag575
ag324
ag3351
ag2218
ag3620
ag3068
ag3255
ag408
ag1269
ag3286
ag3266
ag1069
ag2665
ag1093
ag3492
ag1461
ag2888
ag329
ag2491
ag1669
ag697
ag2376
ag2490
ag927
ag1342
ag618
ag1506
ag1624
ag1714
ag2919
ag3232
ag1009
ag2132
ag2607
ag2879
ag3383
ag2846
ag3123
ag3311
ag3530
ag2860
ag1170
ag1316
ag1978
aS'e'
ag1391
ag417
ag1716
ag1724
ag1013
ag2699
ag951
ag679
ag1779
ag678
ag412
ag1240
ag1000
ag2694
ag1427
ag1971
ag574
ag2804
ag1938
ag3364
ag2484
ag3074
ag1940
ag2917
ag2940
ag471
ag2534
ag3008
ag1915
ag1023
ag2603
ag3517
ag1423
ag1211
ag2161
ag667
ag2081
ag319
ag3483
ag1834
ag3505
ag1640
ag1882
ag1191
ag2734
ag2354
ag1194
ag1590
ag169
ag1493
ag3335
ag1954
ag1288
ag3680
ag3627
ag2701
ag3133
ag2073
ag540
ag2183
ag3201
ag2777
ag118
ag157
ag117
ag159
ag933
ag2378
ag765
ag227
ag3498
ag2151
ag2623
ag2166
ag2169
ag1494
ag2017
ag1487
ag1099
ag2463
ag1143
ag972
ag3165
ag2368
ag1670
ag1007
ag3725
ag2251
ag572
ag197
ag2502
ag357
ag486
ag1545
ag796
ag1730
ag1939
ag2640
ag3381
ag2724
ag1842
ag353
ag352
ag1802
ag1932
ag149
ag1260
ag3280
ag3430
ag3472
ag950
ag3567
ag3297
ag1531
ag2884
ag1032
ag2617
ag637
ag387
ag3288
ag2587
ag1052
ag3405
ag568
ag3166
ag1368
ag988
ag2476
ag889
ag1754
ag3408
ag2237
ag1001
ag3117
ag3139
ag3621
ag2707
ag3048
ag1221
ag1405
ag88
ag275
ag276
ag638
ag3127
ag587
ag981
ag2824
ag3548
ag1746
ag2847
ag1373
ag1921
ag2040
ag3239
ag3145
ag2165
ag400
ag3186
ag2209
ag1621
ag2531
ag1087
ag3209
ag2278
ag1340
ag681
ag1181
ag2689
ag1016
ag2526
ag2032
ag884
ag3500
ag171
ag390
ag2978
ag2390
ag3546
ag958
ag1213
ag1043
ag2588
ag1844
ag1936
ag143
ag2492
ag2995
ag2738
ag1541
ag1371
ag3488
ag1985
ag1144
ag1639
ag1765
ag1387
ag1961
ag3402
ag1996
ag2478
ag3599
ag1618
ag1046
ag1411
ag1604
ag849
ag1571
ag531
ag1611
ag1832
ag1909
ag287
ag1911
ag2740
ag2702
ag3223
ag394
ag438
ag2110
ag1990
ag1891
ag1350
ag3719
ag1700
ag746
ag2714
ag2845
ag451
ag3183
ag2742
ag1372
ag763
ag3081
ag2064
ag20
ag3228
ag593
ag285
ag3569
ag2133
ag745
ag388
ag2967
ag2515
ag2899
ag2355
ag1589
ag2313
ag2939
ag764
ag498
ag1887
ag3586
ag2642
ag3069
ag2957
ag2037
ag1422
ag2035
ag2038
ag418
ag3649
ag3284
ag3490
ag2042
ag1266
ag873
ag1592
ag682
ag3100
ag497
ag1925
ag1865
ag46
ag615
ag1522
ag3085
ag1918
ag2942
ag2392
ag924
ag2170
ag68
ag491
ag216
ag472
ag1683
ag2123
ag343
ag392
ag3403
ag3422
ag271
ag2959
ag1214
ag2240
aS'g'
ag3169
ag2830
ag304
ag1703
ag1757
ag604
ag909
ag3724
ag3729
ag3338
ag2841
ag1687
ag428
ag1652
ag1719
ag1709
ag2733
ag2382
ag1053
ag25
ag2085
ag1358
ag1287
ag626
ag494
ag824
ag853
ag1723
ag2433
ag969
ag3171
ag133
ag1662
ag2520
ag3087
ag1619
ag1805
ag2677
ag2437
ag3196
ag140
ag1145
ag1979
ag3336
ag3313
ag1870
ag1455
ag2918
ag3687
ag903
ag3160
ag1424
ag563
ag1789
ag47
ag2129
ag3442
ag2584
ag3395
ag105
ag792
ag2826
ag1704
ag2853
ag2963
ag548
ag376
ag201
ag1466
ag114
ag289
ag255
ag890
ag136
ag3289
ag2163
ag2643
ag3372
ag754
ag800
ag30
ag1470
ag231
ag2867
ag1369
ag2945
ag489
ag774
ag1628
ag657
ag1248
ag3185
ag2488
ag2291
ag1049
ag3593
ag2233
ag3711
ag3047
ag2381
ag2434
ag2509
ag1992
ag1771
ag2296
ag1523
ag1585
ag478
ag1829
ag1528
ag2102
ag1412
ag1180
ag2799
ag1486
ag2786
ag599
ag3566
ag2598
ag1216
ag3130
ag3511
ag1026
ag1813
ag1303
ag1354
ag675
ag787
ag691
ag2468
ag326
ag2610
ag882
ag3256
ag2018
ag2127
ag3157
ag2408
ag2568
ag760
ag2914
ag120
ag949
ag3089
ag843
ag2358
ag1041
ag2200
ag3550
ag734
ag1732
ag603
ag2783
ag279
ag1331
ag265
ag3466
ag1818
ag650
ag936
ag1039
ag974
ag3628
ag1366
ag129
ag1085
ag370
ag1852
ag809
ag3001
ag1787
ag1415
ag89
ag3540
ag1267
ag35
ag2139
ag732
ag195
ag141
ag3607
ag1425
ag2780
ag2021
ag1880
ag206
ag328
ag142
ag2768
ag672
ag325
ag1825
ag3305
ag2574
ag2731
ag841
ag2703
ag464
ag2533
ag2380
ag389
ag1783
ag43
ag1740
ag131
ag1058
ag1253
ag3396
ag1558
ag257
ag1547
ag504
ag3646
ag156
ag2747
ag70
ag3083
ag3073
ag1188
ag2838
ag94
ag1147
ag164
ag1341
ag2922
ag3545
ag317
ag1551
ag334
ag111
ag90
ag2236
ag685
ag1966
ag869
ag3143
ag1962
ag3624
ag1206
ag772
ag865
ag316
ag3420
ag3552
ag3181
ag241
ag3007
ag1051
ag642
ag1676
ag246
ag1609
ag1583
ag2298
ag2438
ag509
ag268
ag1596
ag788
ag2844
ag3277
ag2326
ag2567
ag2779
ag2858
ag716
ag1378
ag3645
ag1706
ag273
ag3043
ag1950
ag1641
ag1146
ag570
ag579
ag1498
ag1509
ag3125
ag60
ag1747
ag2350
ag2227
ag545
ag2186
ag946
ag427
ag1884
ag1467
ag465
ag3162
ag866
ag2454
ag799
ag2429
ag3156
aS'i'
ag220
ag77
ag21
ag153
ag359
ag1889
ag1629
ag1883
ag2784
ag2405
ag39
ag3468
ag1803
ag3251
ag555
ag931
ag1755
ag1582
ag1117
ag1141
ag2667
ag2493
ag2540
ag2317
ag6
ag1672
ag3706
ag3440
ag2744
ag3170
ag3102
ag2497
ag3515
ag3674
ag1566
ag779
ag1521
ag121
ag3017
ag2622
ag1131
ag2359
ag3279
ag2602
ag3655
ag2875
ag3507
ag2175
ag395
ag1713
ag1418
ag2668
ag3554
ag2199
ag2683
ag2177
ag898
ag2360
ag15
ag3434
ag1663
ag3375
ag1843
ag10
ag29
ag2842
ag3234
ag3240
ag1090
aS'j'
ag1025
ag1096
ag2260
ag3058
ag855
ag1983
ag2173
ag1325
ag1892
ag3461
ag1764
ag2155
ag3728
ag820
ag3458
ag1767
ag3051
ag232
ag2903
ag2254
ag1760
ag3388
ag435
ag1536
ag2348
ag2366
ag1849
ag311
ag1171
ag2343
ag3215
ag1339
ag2316
ag3508
ag3187
ag564
ag1148
ag3038
ag1178
ag3426
ag1931
ag1944
ag1338
ag3664
ag954
ag1276
ag2257
ag2057
ag3714
ag28
ag299
aS'k'
ag2162
ag1033
ag3158
ag620
ag107
ag3660
ag2458
ag377
ag3233
ag1826
ag1225
ag624
ag1729
ag3547
ag939
ag3689
ag3214
ag861
ag2297
ag161
ag2985
ag315
ag2320
ag2614
ag2797
ag1392
ag2798
ag297
ag2871
ag404
ag2949
ag1591
ag3443
ag3003
ag445
ag2453
ag3135
ag1236
ag2774
ag23
ag2130
ag2787
ag461
ag755
ag2776
ag3479
ag3544
ag3464
ag995
ag2765
ag785
ag2001
aS'l'
ag3387
ag1420
ag2023
ag1375
ag482
ag877
ag1079
ag3380
ag1110
ag2425
ag1578
ag2542
ag407
ag815
ag1296
ag1263
ag3134
ag3164
ag2684
ag647
ag3042
ag3034
ag302
ag2711
ag3709
ag3391
ag830
ag2099
ag1434
ag1071
ag1133
ag1222
ag646
ag1743
ag614
ag410
ag857
ag2573
ag3629
ag2513
ag3631
ag757
ag581
ag2303
ag327
ag2043
ag636
ag606
ag3220
ag3070
ag3204
ag3205
ag224
ag1762
ag3462
ag2972
ag237
ag1364
ag3203
ag51
ag372
ag3092
ag374
ag2974
ag1694
ag1306
ag677
ag87
ag2344
ag3647
ag2521
ag1564
ag203
ag1030
ag2432
ag858
ag2472
ag13
ag3321
ag186
ag2122
ag762
ag2736
ag3693
ag3518
ag3019
ag1255
ag3415
ag1297
ag2710
ag3026
ag519
ag2044
ag2576
ag1129
ag364
ag3471
ag2817
ag208
ag146
ag303
ag168
ag541
ag807
ag3312
ag2901
ag1769
ag1360
ag738
ag3467
ag3264
ag1290
ag1885
ag870
ag1930
ag539
ag154
ag2143
ag1977
ag99
ag252
ag1299
ag1976
ag1137
ag1503
ag240
ag625
ag959
ag1139
ag239
ag405
ag2248
ag1602
ag458
ag45
ag814
ag669
ag2384
ag816
ag1015
ag2082
ag741
ag644
ag1557
ag2470
ag3474
ag2228
ag2149
ag2267
ag3559
ag1454
ag2825
ag3398
ag2894
ag907
aS'm'
ag651
ag2791
ag2753
ag1136
ag1847
ag2831
ag1271
ag2829
ag378
ag116
ag2066
ag3211
ag3182
ag2758
ag1038
ag2926
ag2904
ag2770
ag75
ag3226
ag804
ag1011
ag735
ag2718
ag1540
ag3392
ag2655
ag582
ag2007
ag1827
ag1750
ag102
ag1261
ag3174
ag1074
ag2336
ag3407
ag449
ag1550
ag2660
ag3150
ag2756
ag2369
ag2246
ag2003
ag2633
ag825
ag727
ag340
ag3636
ag3528
ag2310
ag1768
ag3326
ag3353
ag3557
ag3347
ag300
ag2996
ag3103
ag2121
ag666
ag194
ag3124
ag1539
ag1489
ag1958
ag8
ag1562
ag221
ag538
ag3469
ag2986
ag654
ag1444
ag910
ag2585
ag610
ag2930
ag1814
ag3644
ag2197
ag1854
ag2757
ag2226
ag1106
ag1010
ag860
ag1697
ag3310
ag1451
ag2189
ag1638
ag660
ag3665
ag1047
ag2708
ag415
ag602
ag3235
ag3308
ag3216
ag2635
ag2283
ag507
ag1792
ag3416
ag406
ag817
ag2495
ag1089
ag2529
ag234
ag2009
ag1568
ag1991
ag1994
ag1831
ag2989
ag543
ag2103
ag2212
ag222
ag3524
ag661
ag2832
ag1376
ag1644
ag2645
ag1555
ag992
ag1385
ag2431
ag793
ag2778
ag2891
ag1798
ag3601
ag2284
ag1617
ag1324
ag2249
ag2950
ag2754
ag2135
ag453
ag818
ag1102
ag1504
ag2397
ag2450
ag2195
ag2421
ag3000
ag3477
ag1960
ag811
ag2973
ag838
ag473
ag3105
ag2142
ag2147
ag3716
ag1076
ag109
ag2968
ag1665
ag1445
ag2481
ag1895
ag229
ag2552
ag561
ag1671
ag110
ag801
ag2168
ag349
ag1574
ag2499
ag426
ag2447
ag1830
ag3561
ag767
ag880
ag695
ag534
ag2159
ag2953
ag2362
ag2813
ag887
ag366
ag402
ag3438
ag1218
ag1227
ag641
ag872
ag1943
ag249
ag3304
ag3473
ag298
ag3219
ag506
ag416
ag7
ag233
ag2723
ag1748
ag474
ag1431
ag3075
ag1077
ag196
ag2461
ag1450
ag3119
ag2299
ag1300
ag1040
ag701
ag2726
ag1963
ag1795
ag1796
ag702
ag3108
ag71
ag658
ag1319
ag1436
ag1781
ag2046
ag1689
ag565
ag1916
ag2258
ag2391
ag883
ag64
ag86
ag916
ag479
ag1262
ag1210
ag3596
ag1658
ag50
ag1121
ag67
ag225
ag3653
ag1749
ag469
ag2334
ag3210
ag463
ag2558
ag3016
ag1630
ag32
ag139
ag990
ag1879
ag2510
ag3563
ag2676
ag756
ag1250
ag2604
ag3639
ag3678
ag2153
ag3032
ag69
ag2837
ag717
ag260
ag776
ag2315
ag1400
ag3432
ag2301
ag2289
ag41
ag3053
ag1864
ag771
ag1518
ag3389
ag2210
ag1031
ag2796
ag2869
ag1649
ag1278
ag14
ag73
ag1029
ag1535
ag1894
ag1351
ag123
ag182
ag430
ag250
ag1229
ag1402
ag3684
ag12
ag398
ag53
ag3254
ag2309
ag3095
ag2365
ag93
ag1362
ag1734
ag696
ag1875
ag1776
ag1182
ag1012
ag3589
ag381
ag2241
ag1886
ag3717
ag3035
ag2812
ag62
ag2039
ag881
ag3101
ag1533
ag2011
ag175
ag608
ag2469
ag78
ag707
ag34
ag2243
ag1835
ag2750
ag1080
ag1840
ag2806
ag361
ag1548
ag3056
ag3459
ag3637
ag2449
ag2691
ag3704
ag2897
ag3362
ag2418
ag845
ag2190
ag309
ag3376
aS'p'
ag2947
ag597
ag3493
ag2503
ag2448
ag2264
ag718
ag209
ag2971
ag1174
ag719
ag2337
ag2386
ag2687
ag1660
ag2379
ag1500
ag2810
ag1091
ag3021
ag1654
ag1396
ag2318
ag3005
ag413
ag2792
ag2555
ag3656
ag467
ag2483
ag313
ag556
ag294
ag2785
ag3480
ag3635
ag749
ag1254
ag1469
ag1809
ag3260
ag1204
ag1739
ag557
ag2528
ag1919
ag3504
ag2923
ag397
ag2539
ag2157
ag2522
ag3497
ag2489
ag1906
ag1243
ag3478
ag226
ag2966
ag3036
ag613
ag3331
ag1599
ag1808
ag2866
ag2855
ag2274
ag2962
ag1791
ag2909
ag2221
ag3549
ag2662
ag2980
ag2580
ag1980
ag921
ag3259
ag2265
ag1668
ag3527
ag867
ag1485
ag3529
ag2697
ag2929
ag3465
ag571
ag3189
ag914
ag1968
ag2885
ag3701
ag1384
ag3267
ag3306
ag3612
ag1413
ag3238
ag3014
ag1860
ag1044
ag2302
ag2367
ag2109
ag690
ag3197
ag2712
ag1499
ag2890
ag3503
ag3658
ag1851
ag1515
ag253
ag3551
ag2621
ag1185
ag1152
ag2519
ag2219
ag3262
ag935
ag1707
ag348
ag1801
ag1804
ag2678
ag3190
ag301
ag1155
ag902
ag1473
ag3076
ag2579
ag1530
ag529
ag1212
ag2532
ag1108
ag1050
ag3539
ag337
ag634
ag726
ag2136
ag3064
ag1083
ag3009
ag1082
ag2663
ag386
ag2524
ag2535
ag254
ag2821
ag1312
ag1684
ag2659
ag3247
ag2105
ag2070
ag3084
ag1081
ag1608
ag1217
ag1888
ag217
ag1353
ag2244
ag213
ag2092
ag1643
ag2741
ag2616
ag346
ag530
ag2771
ag1333
ag826
ag1432
ag2005
ag3512
ag2988
ag3450
ag3577
ag1872
ag963
ag1352
ag839
ag1377
ag2851
ag1896
ag631
ag3581
ag2328
ag2530
ag1232
ag2748
ag1850
ag3229
ag3231
ag261
ag850
ag2185
ag2639
ag3281
ag1045
ag3339
ag791
ag580
ag1997
ag3663
ag1957
ag1948
ag2330
ag3258
ag2763
ag2666
ag2075
ag1505
ag1799
ag892
ag783
ag2597
ag743
ag2030
ag1073
ag1280
ag3623
ag710
ag3178
ag1524
ag2115
ag2975
ag2373
ag411
ag170
ag2728
ag2863
ag2234
ag3673
ag1042
ag173
ag1270
ag2203
ag2994
ag3358
ag3410
ag768
ag3502
ag832
ag2627
ag739
ag3401
ag1273
ag2905
ag2508
ag671
ag3115
ag3614
ag962
ag1903
ag2148
ag2069
ag2572
ag1635
ag1646
ag1681
ag1247
ag3564
ag247
ag3274
ag2990
ag1332
ag419
ag3188
ag3022
ag2981
ag3263
ag3250
ag3029
ag296
ag2178
ag2591
ag1215
ag3574
ag891
ag585
ag1552
ag454
ag1219
ag179
ag2400
ag976
ag3295
ag235
ag937
ag1935
ag1164
ag1559
ag2443
ag3532
ag993
ag2977
ag3712
ag3538
ag1335
ag3179
ag3523
ag3582
ag1594
ag632
ag3703
ag2054
ag2339
ag2835
ag3718
ag1452
ag3355
ag2596
ag2772
ag3384
ag1484
ag1311
ag1421
ag1184
ag3039
ag2031
ag3237
ag267
ag956
ag3683
ag1579
ag2213
ag1309
ag3715
ag1712
ag3359
ag2811
ag2937
ag515
ag3099
ag1782
ag1727
ag3723
ag3533
ag2911
ag1190
ag2861
ag3128
ag2072
ag1912
ag2377
ag2201
ag2745
ag2895
ag2231
ag1195
ag802
ag1636
ag554
ag970
ag2134
ag2002
ag516
ag1135
ag3399
ag1488
ag3222
ag263
ag2093
ag1661
ag3588
ag2698
ag2613
ag101
ag1934
ag713
ag1699
ag2404
ag2870
ag2471
ag3520
ag3045
ag3298
ag444
ag2912
ag2938
ag1556
ag984
ag532
ag1745
ag1751
ag3583
ag3454
ag973
ag982
ag3071
ag1856
ag940
ag1359
ag871
ag1510
ag2781
ag508
ag1022
ag971
ag2261
ag1993
ag3012
ag3199
ag3452
ag965
ag2410
ag1370
ag2223
ag2033
ag2372
ag2559
ag1393
ag1230
ag2029
ag2889
ag1848
ag202
ag452
ag3668
ag1637
aS's'
ag2034
ag1320
ag1024
ag362
ag96
ag1738
ag2516
ag3433
ag2277
ag2273
ag2583
ag1560
ag178
ag2417
ag2581
ag1228
ag1101
ag2820
ag2582
ag2575
ag3054
ag1949
ag2424
ag2063
ag2751
ag1537
ag1572
ag2361
ag425
ag546
ag61
ag1066
ag665
ag3200
ag3227
ag1952
ag1149
ag1374
ag1313
ag3710
ag1511
ag512
ag2651
ag1409
ag2793
ag3299
ag2848
ag3136
ag1678
ag1433
ag906
ag499
ag1417
ag3218
ag2893
ag1816
ag3638
ag1166
ag1701
ag2485
ag1871
ag1328
ag1659
ag1833
ag1078
ag1365
ag3449
ag502
ag2924
ag1868
ag3423
ag55
ag929
ag1650
ag1648
ag3159
ag1098
ag320
ag2881
ag1183
ag584
ag1169
ag3163
ag1874
ag1702
ag3447
ag1837
ag3585
ag3591
ag1947
ag2673
ag3385
ag3104
ag1893
ag2827
ag2436
ag1616
ag2843
ag589
ag930
ag1812
ag470
ag1481
ag1154
ag3225
ag886
ag379
ag1666
ag3334
ag3033
ag1490
ag2664
ag1653
ag2083
ag1691
ag44
ag943
ag1118
ag3028
ag2266
ag2413
ag2371
ag1127
ag1549
ag3720
ag2152
ag1914
ag794
ag1435
ag2090
ag3632
ag2960
ag48
ag3379
ag2612
ag3506
ag2482
ag1063
ag2281
ag3651
ag1495
ag688
ag1068
ag3721
ag3330
ag3138
ag2686
ag3393
ag286
ag278
ag2321
ag535
ag3597
ag955
ag708
ag210
ag2809
ag542
ag810
ag619
ag3314
ag628
ag1937
ag736
ag3137
ag2111
ag998
ag3696
ag723
ag3063
ag1275
ag1553
ag2951
ag1205
ag2910
ag1294
ag152
ag2068
ag1281
ag3413
ag3212
ag3091
ag2892
ag1291
ag586
ag1785
ag3248
ag184
ag1122
ag3510
ag1292
ag2411
ag986
ag2456
ag2091
ag2341
ag3610
ag1419
ag434
ag3146
ag1989
ag1820
ag2004
ag1735
ag3608
ag3534
ag3278
ag1586
ag2247
ag720
ag2245
ag630
ag1165
ag1088
ag1192
ag2446
ag1862
ag1304
ag1584
ag3615
ag3246
ag2008
ag331
ag1414
ag1587
ag1130
ag2948
ag3481
ag2906
ag1967
ag3072
ag3067
ag1125
ag525
ag1394
ag1565
ag2416
ag1223
ag1057
ag2822
ag3078
ag3168
ag1381
ag2800
ag1201
ag2357
ag3044
ag1656
ag900
ag31
ag1397
ag1308
ag3077
ag3661
ag3147
ag1598
ag840
ag2049
ag1140
ag74
ag2441
ag200
ag957
ag1158
ag218
ag481
ag960
ag351
ag894
ag652
ag431
ag342
ag686
ag1527
ag761
ag1114
ag3061
ag500
ag3243
ag1741
ag207
ag148
ag3096
ag1315
ag1923
ag1020
ag2280
ag2322
ag2323
ag423
ag2224
ag2117
ag3346
ag2383
ag1336
ag2674
ag1607
ag808
ag3603
ag1231
ag3094
ag2954
ag639
ag1693
ag2268
ag1717
ag1610
ag3669
ag1086
ag997
ag521
ag3560
ag837
ag3509
ag3173
ag700
ag3670
ag2541
ag2452
ag952
ag3579
ag2681
ag3662
ag2180
ag3675
ag3129
ag1383
ag2467
ag2976
ag2680
ag1986
ag480
ag3110
ag2700
ag2803
ag3456
ag288
ag2027
ag2349
ag852
ag2790
ag2352
ag1112
ag256
ag2547
ag2692
ag3121
ag187
ag2120
ag1721
ag1722
ag1570
ag813
ag3345
ag1807
ag601
ag1866
ag1904
ag1543
ag2419
ag459
ag2637
ag1951
ag92
ag2271
ag2578
ag699
ag2293
ag1772
ag751
ag277
ag1512
ag2727
ag1176
ag1251
ag391
ag1357
ag673
ag176
ag513
ag663
ag2128
ag2187
ag1084
ag2601
ag989
ag893
ag1965
ag2936
ag806
ag753
ag3436
ag1100
ag2882
ag967
ag1759
ag1797
ag3486
ag2427
ag2618
ag576
ag2553
ag2125
ag1092
ag2050
ag2631
ag1828
ag2706
ag932
ag1395
ag987
ag1008
ag3079
ag560
ag3080
ag752
ag2113
ag3482
ag3272
ag2100
ag3541
ag2600
ag192
ag2327
ag2730
ag583
ag3699
ag281
ag1753
ag1480
ag3526
ag2067
ag2819
ag1677
ag1379
ag1841
ag1475
ag3343
ag594
ag163
ag1380
ag2984
ag703
ag1846
ag2116
ag2118
ag2594
ag2788
aS't'
ag3269
ag1105
ag3055
ag2641
ag3634
ag2561
ag2150
ag97
ag2644
ag827
ag1343
ag167
ag132
ag662
ag705
ag3273
ag1873
ag1790
ag3344
ag2356
ag821
ag456
ag1793
ag3565
ag888
ag3484
ag2564
ag1126
ag769
ag2921
ag2052
ag1163
ag2282
ag1329
ag536
ag2466
ag748
ag2593
ag2311
ag339
ag1612
ag2648
ag65
ag2500
ag475
ag1651
ag1310
ag3357
ag569
ag1196
ag3177
ag2764
ag1249
ag750
ag978
ag3354
ag3285
ag2225
ag2563
ag134
ag1035
ag1462
ag2137
ag2154
ag945
ag1838
ag1955
ag9
ag52
ag3409
ag1715
ag2
ag1770
ag185
ag1471
ag145
ag3241
ag57
ag113
ag367
ag81
ag26
ag1189
ag766
ag648
ag1293
ag1613
ag2652
ag3303
ag1998
ag3202
ag188
ag360
ag230
ag1104
ag2414
ag879
ag612
ag1532
ag19
ag3024
ag729
ag664
ag314
ag1823
ag728
ag2766
ag2883
ag424
ag2592
ag1235
ag3292
ag925
ag3327
ag627
ag128
ag2913
ag385
ag1199
ag2874
ag2393
ag2769
ag1356
ag3499
ag905
ag1956
ag2560
ag2998
ag2570
ag3287
ag3606
ag2735
ag1021
ag80
ag3428
ag3180
ag242
ag977
ag1019
ag2943
ag1625
ag1330
ag501
ag975
ag3587
ag3122
ag3516
ag3605
ag5
ag1970
ag2577
ag1534
ag2290
ag537
ag1597
ag3531
ag125
ag1429
ag1622
ag844
ag1577
ag659
ag2459
ag920
ag100
ag365
ag2270
ag3676
ag190
ag3319
ag1034
ag2342
ag1953
ag3154
ag126
ag3242
ag1692
ag558
ag2331
ag2332
ag3107
ag2649
ag566
ag1138
ag1569
ag2422
ag2220
ag3249
ag1929
ag3332
ag2084
ag834
ag1675
ag897
ag778
ag2059
ag2590
ag2363
ag345
ag3153
ag3328
ag684
ag2854
ag1242
ag2077
ag1403
ag2548
ag2679
ag689
ag1036
ag1060
ag2626
ag3519
ag1731
ag2131
ag3060
ag282
ag722
ag2389
ag2615
ag321
ag616
ag605
ag737
ag2496
ag181
ag3553
ag293
ag3558
ag2650
ag3487
ag2196
ag2455
ag160
ag715
ag2729
ag2737
ag1124
ag2941
ag2925
ag1408
ag3252
ag1172
ag1969
ag3349
ag2430
ag3590
ag3702
ag150
ag1442
ag1314
ag495
ag2653
ag2041
ag864
ag1913
ag938
ag777
ag670
ag306
ag3307
ag1094
ag492
ag1999
ag3097
ag1257
ag1756
ag3697
ag2272
ag1655
ag219
ag3571
ag2174
ag3727
ag1241
ag3572
ag1573
ag3027
ag1698
ag1327
ag1388
ag1964
ag683
ag2191
ag18
ag3230
ag1633
ag95
ag3236
ag1284
ag393
ag1878
ag2061
ag2024
ag2805
ag2346
ag1464
ag2934
ag1620
ag2426
ag1763
ag1988
ag846
ag3378
ag2232
ag2638
ag2396
ag2010
ag1811
ag2158
ag1800
ag3350
ag747
ag3020
ag733
ag1839
ag2370
ag1438
ag401
ag3140
ag3151
ag1426
ag2630
ag2395
ag3622
ag308
ag2457
ag3404
ag3112
ag1786
ag1459
ag2406
ag1946
ag2445
ag2114
ag2286
ag1496
ag323
ag2955
ag1492
ag3244
ag1581
ag3650
ag1902
ag251
ag1187
ag336
ag490
ag332
ag2275
ag2107
ag1346
ag1519
ag2071
ag84
ag79
ag2562
ag1933
ag371
ag1984
ag3322
ag1491
ag2242
ag38
ag1576
ag621
ag2685
ag835
ag1632
ag165
ag3444
ag822
ag781
ag1710
ag3172
ag2205
ag2517
ag76
ag2850
ag2308
ag22
ag655
ag414
ag396
ag3090
ag2415
ag915
ag3057
ag3584
ag520
ag1679
ag1334
ag1688
ag731
ag2388
ag983
ag483
ag2902
ag3489
ag2288
ag1006
ag3030
ag238
ag2506
ag274
ag1908
ag108
ag1441
ag3217
ag552
ag1367
ag36
ag236
ag2546
ag595
ag3352
ag2335
ag24
ag1027
ag59
ag692
ag848
ag484
ag3193
ag596
ag656
ag2164
ag1289
ag1546
ag3700
ag3613
ag382
ag85
ag3616
ag3537
ag409
ag2931
ag215
ag3184
ag3562
ag1404
ag174
ag3625
ag1059
ag2543
ag1097
ag1282
ag622
ag3659
ag130
ag2207
ag3315
ag3536
ag2387
ag805
ag510
ag380
ag649
ag3011
ag3611
ag3275
ag3495
ag3686
ag488
ag2670
ag3397
ag2900
ag16
ag3066
ag338
ag1390
ag1256
ag3694
ag2565
ag674
ag1005
ag1198
ag403
ag383
ag2078
ag3302
ag591
ag2287
ag3361
ag373
ag823
ag2014
ag318
ag2074
ag172
ag2304
ag2566
ag2886
ag1128
ag854
ag158
ag968
ag782
ag1924
ag3386
ag2732
ag2215
ag2551
ag1437
ag3290
ag441
ag2849
ag1544
ag645
ag694
ag588
ag3111
ag2501
ag1520
ag147
ag98
ag2494
ag1347
ag1037
ag1348
ag3120
ag3363
ag350
ag2498
ag577
ag58
ag2307
ag2167
ag1167
ag443
ag1109
ag1910
ag3377
ag1399
ag947
ag191
ag2325
ag1226
ag948
ag2202
ag2719
ag2217
ag258
ag291
ag2527
ag1926
ag3356
ag1447
ag3
ag1274
ag485
ag166
ag803
ag2722
ag354
ag11
ag942
ag712
ag3463
ag2801
ag2608
ag2983
ag2194
ag3681
ag2857
ag2211
ag2554
ag3698
ag2428
ag3050
ag193
ag2253
at.